
parkingsensor.elf:     file format elf32-avr

Sections:
Idx Name          Size      VMA       LMA       File off  Algn
  0 .data         00000108  00800100  0000243c  000024d0  2**0
                  CONTENTS, ALLOC, LOAD, DATA
  1 .text         0000243c  00000000  00000000  00000094  2**1
                  CONTENTS, ALLOC, LOAD, READONLY, CODE
  2 .bss          00000082  00800208  00800208  000025d8  2**0
                  ALLOC
  3 .comment      00000030  00000000  00000000  000025d8  2**0
                  CONTENTS, READONLY
  4 .note.gnu.avr.deviceinfo 00000040  00000000  00000000  00002608  2**2
                  CONTENTS, READONLY
  5 .debug_aranges 000001c8  00000000  00000000  00002648  2**0
                  CONTENTS, READONLY, DEBUGGING
  6 .debug_info   00005b29  00000000  00000000  00002810  2**0
                  CONTENTS, READONLY, DEBUGGING
  7 .debug_abbrev 00000da9  00000000  00000000  00008339  2**0
                  CONTENTS, READONLY, DEBUGGING
  8 .debug_line   000020d0  00000000  00000000  000090e2  2**0
                  CONTENTS, READONLY, DEBUGGING
  9 .debug_frame  000004b4  00000000  00000000  0000b1b4  2**2
                  CONTENTS, READONLY, DEBUGGING
 10 .debug_str    0000074e  00000000  00000000  0000b668  2**0
                  CONTENTS, READONLY, DEBUGGING
 11 .debug_loc    00001a14  00000000  00000000  0000bdb6  2**0
                  CONTENTS, READONLY, DEBUGGING
 12 .debug_ranges 00000198  00000000  00000000  0000d7ca  2**0
                  CONTENTS, READONLY, DEBUGGING

Disassembly of section .text:

00000000 <__vectors>:
       0:	0c 94 34 00 	jmp	0x68	; 0x68 <__ctors_end>
       4:	0c 94 de 0e 	jmp	0x1dbc	; 0x1dbc <__vector_1>
       8:	0c 94 9e 0e 	jmp	0x1d3c	; 0x1d3c <__vector_2>
       c:	0c 94 51 00 	jmp	0xa2	; 0xa2 <__bad_interrupt>
      10:	0c 94 51 00 	jmp	0xa2	; 0xa2 <__bad_interrupt>
      14:	0c 94 51 00 	jmp	0xa2	; 0xa2 <__bad_interrupt>
      18:	0c 94 51 00 	jmp	0xa2	; 0xa2 <__bad_interrupt>
      1c:	0c 94 51 00 	jmp	0xa2	; 0xa2 <__bad_interrupt>
      20:	0c 94 51 00 	jmp	0xa2	; 0xa2 <__bad_interrupt>
      24:	0c 94 1e 0f 	jmp	0x1e3c	; 0x1e3c <__vector_9>
      28:	0c 94 51 00 	jmp	0xa2	; 0xa2 <__bad_interrupt>
      2c:	0c 94 51 00 	jmp	0xa2	; 0xa2 <__bad_interrupt>
      30:	0c 94 51 00 	jmp	0xa2	; 0xa2 <__bad_interrupt>
      34:	0c 94 51 00 	jmp	0xa2	; 0xa2 <__bad_interrupt>
      38:	0c 94 51 00 	jmp	0xa2	; 0xa2 <__bad_interrupt>
      3c:	0c 94 51 00 	jmp	0xa2	; 0xa2 <__bad_interrupt>
      40:	0c 94 51 00 	jmp	0xa2	; 0xa2 <__bad_interrupt>
      44:	0c 94 51 00 	jmp	0xa2	; 0xa2 <__bad_interrupt>
      48:	0c 94 c3 0f 	jmp	0x1f86	; 0x1f86 <__vector_18>
      4c:	0c 94 f1 0f 	jmp	0x1fe2	; 0x1fe2 <__vector_19>
      50:	0c 94 51 00 	jmp	0xa2	; 0xa2 <__bad_interrupt>
      54:	0c 94 51 00 	jmp	0xa2	; 0xa2 <__bad_interrupt>
      58:	0c 94 51 00 	jmp	0xa2	; 0xa2 <__bad_interrupt>
      5c:	0c 94 51 00 	jmp	0xa2	; 0xa2 <__bad_interrupt>
      60:	0c 94 51 00 	jmp	0xa2	; 0xa2 <__bad_interrupt>
      64:	0c 94 51 00 	jmp	0xa2	; 0xa2 <__bad_interrupt>

00000068 <__ctors_end>:
      68:	11 24       	eor	r1, r1
      6a:	1f be       	out	0x3f, r1	; 63
      6c:	cf ef       	ldi	r28, 0xFF	; 255
      6e:	d8 e0       	ldi	r29, 0x08	; 8
      70:	de bf       	out	0x3e, r29	; 62
      72:	cd bf       	out	0x3d, r28	; 61

00000074 <__do_copy_data>:
      74:	12 e0       	ldi	r17, 0x02	; 2
      76:	a0 e0       	ldi	r26, 0x00	; 0
      78:	b1 e0       	ldi	r27, 0x01	; 1
      7a:	ec e3       	ldi	r30, 0x3C	; 60
      7c:	f4 e2       	ldi	r31, 0x24	; 36
      7e:	02 c0       	rjmp	.+4      	; 0x84 <__do_copy_data+0x10>
      80:	05 90       	lpm	r0, Z+
      82:	0d 92       	st	X+, r0
      84:	a8 30       	cpi	r26, 0x08	; 8
      86:	b1 07       	cpc	r27, r17
      88:	d9 f7       	brne	.-10     	; 0x80 <__do_copy_data+0xc>

0000008a <__do_clear_bss>:
      8a:	22 e0       	ldi	r18, 0x02	; 2
      8c:	a8 e0       	ldi	r26, 0x08	; 8
      8e:	b2 e0       	ldi	r27, 0x02	; 2
      90:	01 c0       	rjmp	.+2      	; 0x94 <.do_clear_bss_start>

00000092 <.do_clear_bss_loop>:
      92:	1d 92       	st	X+, r1

00000094 <.do_clear_bss_start>:
      94:	aa 38       	cpi	r26, 0x8A	; 138
      96:	b2 07       	cpc	r27, r18
      98:	e1 f7       	brne	.-8      	; 0x92 <.do_clear_bss_loop>
      9a:	0e 94 d7 0d 	call	0x1bae	; 0x1bae <main>
      9e:	0c 94 1c 12 	jmp	0x2438	; 0x2438 <_exit>

000000a2 <__bad_interrupt>:
      a2:	0c 94 00 00 	jmp	0	; 0x0 <__vectors>

000000a6 <GPIO_config_output>:

void GPIO_config_input_pullup(volatile uint8_t *reg_name, uint8_t pin_num)
{
    	*reg_name = *reg_name & ~(1<<pin_num);  // Data Direction Register
    	*reg_name++;				// Change pointer to Data Register
    	*reg_name = *reg_name | (1<<pin_num);  	// Data Register
      a6:	fc 01       	movw	r30, r24
      a8:	40 81       	ld	r20, Z
      aa:	21 e0       	ldi	r18, 0x01	; 1
      ac:	30 e0       	ldi	r19, 0x00	; 0
      ae:	02 c0       	rjmp	.+4      	; 0xb4 <GPIO_config_output+0xe>
      b0:	22 0f       	add	r18, r18
      b2:	33 1f       	adc	r19, r19
      b4:	6a 95       	dec	r22
      b6:	e2 f7       	brpl	.-8      	; 0xb0 <GPIO_config_output+0xa>
      b8:	24 2b       	or	r18, r20
      ba:	20 83       	st	Z, r18
      bc:	08 95       	ret

000000be <GPIO_config_input_nopull>:
      be:	fc 01       	movw	r30, r24
      c0:	80 81       	ld	r24, Z
      c2:	21 e0       	ldi	r18, 0x01	; 1
      c4:	30 e0       	ldi	r19, 0x00	; 0
      c6:	02 c0       	rjmp	.+4      	; 0xcc <GPIO_config_input_nopull+0xe>
      c8:	22 0f       	add	r18, r18
      ca:	33 1f       	adc	r19, r19
      cc:	6a 95       	dec	r22
      ce:	e2 f7       	brpl	.-8      	; 0xc8 <GPIO_config_input_nopull+0xa>
      d0:	20 95       	com	r18
      d2:	82 23       	and	r24, r18
      d4:	80 83       	st	Z, r24
      d6:	80 81       	ld	r24, Z
      d8:	81 81       	ldd	r24, Z+1	; 0x01
      da:	28 23       	and	r18, r24
      dc:	21 83       	std	Z+1, r18	; 0x01
      de:	08 95       	ret

000000e0 <GPIO_write_low>:
}


void GPIO_write_low(volatile uint8_t *reg_name, uint8_t pin_num)
{
      e0:	fc 01       	movw	r30, r24
    	*reg_name = *reg_name & ~(1<<pin_num);	// Data Direction Register
      e2:	90 81       	ld	r25, Z
      e4:	21 e0       	ldi	r18, 0x01	; 1
      e6:	30 e0       	ldi	r19, 0x00	; 0
      e8:	02 c0       	rjmp	.+4      	; 0xee <GPIO_write_low+0xe>
      ea:	22 0f       	add	r18, r18
      ec:	33 1f       	adc	r19, r19
      ee:	6a 95       	dec	r22
      f0:	e2 f7       	brpl	.-8      	; 0xea <GPIO_write_low+0xa>
      f2:	20 95       	com	r18
      f4:	29 23       	and	r18, r25
      f6:	20 83       	st	Z, r18
      f8:	08 95       	ret

000000fa <GPIO_write_high>:
}

void GPIO_write_high(volatile uint8_t *reg_name, uint8_t pin_num)
{
	*reg_name = *reg_name | (1<<pin_num);	// Data Direction Register
      fa:	fc 01       	movw	r30, r24
      fc:	40 81       	ld	r20, Z
      fe:	21 e0       	ldi	r18, 0x01	; 1
     100:	30 e0       	ldi	r19, 0x00	; 0
     102:	02 c0       	rjmp	.+4      	; 0x108 <GPIO_write_high+0xe>
     104:	22 0f       	add	r18, r18
     106:	33 1f       	adc	r19, r19
     108:	6a 95       	dec	r22
     10a:	e2 f7       	brpl	.-8      	; 0x104 <GPIO_write_high+0xa>
     10c:	24 2b       	or	r18, r20
     10e:	20 83       	st	Z, r18
     110:	08 95       	ret

00000112 <GPIO_toggle>:
}

void GPIO_toggle(volatile uint8_t *reg_name, uint8_t pin_num)
{
	*reg_name = *reg_name ^ (1<<pin_num);   // Data Direction Register
     112:	fc 01       	movw	r30, r24
     114:	40 81       	ld	r20, Z
     116:	21 e0       	ldi	r18, 0x01	; 1
     118:	30 e0       	ldi	r19, 0x00	; 0
     11a:	02 c0       	rjmp	.+4      	; 0x120 <GPIO_toggle+0xe>
     11c:	22 0f       	add	r18, r18
     11e:	33 1f       	adc	r19, r19
     120:	6a 95       	dec	r22
     122:	e2 f7       	brpl	.-8      	; 0x11c <GPIO_toggle+0xa>
     124:	24 27       	eor	r18, r20
     126:	20 83       	st	Z, r18
     128:	08 95       	ret

0000012a <GPIO_read>:
}

uint8_t GPIO_read(volatile uint8_t *reg_name, uint8_t pin_num)
{
	if (bit_is_clear(*reg_name,pin_num))	//Check data direction register
     12a:	fc 01       	movw	r30, r24
     12c:	80 81       	ld	r24, Z
     12e:	90 e0       	ldi	r25, 0x00	; 0
     130:	02 c0       	rjmp	.+4      	; 0x136 <GPIO_read+0xc>
     132:	95 95       	asr	r25
     134:	87 95       	ror	r24
     136:	6a 95       	dec	r22
     138:	e2 f7       	brpl	.-8      	; 0x132 <GPIO_read+0x8>
    	}
	else
	{
		return 1;
	}
}
     13a:	81 70       	andi	r24, 0x01	; 1
     13c:	08 95       	ret

0000013e <toggle_e>:

    while ( (c = pgm_read_byte(progmem_s++)) )
    {
        lcd_putc(c);
    }
}/* lcd_puts_p */
     13e:	29 9a       	sbi	0x05, 1	; 5
     140:	85 e0       	ldi	r24, 0x05	; 5
     142:	8a 95       	dec	r24
     144:	f1 f7       	brne	.-4      	; 0x142 <toggle_e+0x4>
     146:	00 00       	nop
     148:	29 98       	cbi	0x05, 1	; 5
     14a:	08 95       	ret

0000014c <lcd_write>:
     14c:	cf 93       	push	r28
     14e:	c8 2f       	mov	r28, r24
     150:	66 23       	and	r22, r22
     152:	11 f0       	breq	.+4      	; 0x158 <lcd_write+0xc>
     154:	28 9a       	sbi	0x05, 0	; 5
     156:	01 c0       	rjmp	.+2      	; 0x15a <lcd_write+0xe>
     158:	28 98       	cbi	0x05, 0	; 5
     15a:	54 9a       	sbi	0x0a, 4	; 10
     15c:	55 9a       	sbi	0x0a, 5	; 10
     15e:	56 9a       	sbi	0x0a, 6	; 10
     160:	57 9a       	sbi	0x0a, 7	; 10
     162:	5f 98       	cbi	0x0b, 7	; 11
     164:	5e 98       	cbi	0x0b, 6	; 11
     166:	5d 98       	cbi	0x0b, 5	; 11
     168:	5c 98       	cbi	0x0b, 4	; 11
     16a:	cc 23       	and	r28, r28
     16c:	0c f4       	brge	.+2      	; 0x170 <lcd_write+0x24>
     16e:	5f 9a       	sbi	0x0b, 7	; 11
     170:	c6 fd       	sbrc	r28, 6
     172:	5e 9a       	sbi	0x0b, 6	; 11
     174:	c5 fd       	sbrc	r28, 5
     176:	5d 9a       	sbi	0x0b, 5	; 11
     178:	c4 fd       	sbrc	r28, 4
     17a:	5c 9a       	sbi	0x0b, 4	; 11
     17c:	0e 94 9f 00 	call	0x13e	; 0x13e <toggle_e>
     180:	5f 98       	cbi	0x0b, 7	; 11
     182:	5e 98       	cbi	0x0b, 6	; 11
     184:	5d 98       	cbi	0x0b, 5	; 11
     186:	5c 98       	cbi	0x0b, 4	; 11
     188:	c3 fd       	sbrc	r28, 3
     18a:	5f 9a       	sbi	0x0b, 7	; 11
     18c:	c2 fd       	sbrc	r28, 2
     18e:	5e 9a       	sbi	0x0b, 6	; 11
     190:	c1 fd       	sbrc	r28, 1
     192:	5d 9a       	sbi	0x0b, 5	; 11
     194:	c0 fd       	sbrc	r28, 0
     196:	5c 9a       	sbi	0x0b, 4	; 11
     198:	0e 94 9f 00 	call	0x13e	; 0x13e <toggle_e>
     19c:	5c 9a       	sbi	0x0b, 4	; 11
     19e:	5d 9a       	sbi	0x0b, 5	; 11
     1a0:	5e 9a       	sbi	0x0b, 6	; 11
     1a2:	5f 9a       	sbi	0x0b, 7	; 11
     1a4:	87 eb       	ldi	r24, 0xB7	; 183
     1a6:	9b e0       	ldi	r25, 0x0B	; 11
     1a8:	01 97       	sbiw	r24, 0x01	; 1
     1aa:	f1 f7       	brne	.-4      	; 0x1a8 <lcd_write+0x5c>
     1ac:	00 c0       	rjmp	.+0      	; 0x1ae <lcd_write+0x62>
     1ae:	00 00       	nop
     1b0:	cf 91       	pop	r28
     1b2:	08 95       	ret

000001b4 <lcd_command>:
     1b4:	60 e0       	ldi	r22, 0x00	; 0
     1b6:	0e 94 a6 00 	call	0x14c	; 0x14c <lcd_write>
     1ba:	08 95       	ret

000001bc <lcd_data>:
     1bc:	61 e0       	ldi	r22, 0x01	; 1
     1be:	0e 94 a6 00 	call	0x14c	; 0x14c <lcd_write>
     1c2:	08 95       	ret

000001c4 <lcd_gotoxy>:
     1c4:	61 11       	cpse	r22, r1
     1c6:	04 c0       	rjmp	.+8      	; 0x1d0 <lcd_gotoxy+0xc>
     1c8:	80 58       	subi	r24, 0x80	; 128
     1ca:	0e 94 da 00 	call	0x1b4	; 0x1b4 <lcd_command>
     1ce:	08 95       	ret
     1d0:	80 54       	subi	r24, 0x40	; 64
     1d2:	0e 94 da 00 	call	0x1b4	; 0x1b4 <lcd_command>
     1d6:	08 95       	ret

000001d8 <lcd_clrscr>:
     1d8:	81 e0       	ldi	r24, 0x01	; 1
     1da:	0e 94 da 00 	call	0x1b4	; 0x1b4 <lcd_command>
     1de:	08 95       	ret

000001e0 <lcd_putc>:
     1e0:	61 e0       	ldi	r22, 0x01	; 1
     1e2:	0e 94 a6 00 	call	0x14c	; 0x14c <lcd_write>
     1e6:	08 95       	ret

000001e8 <lcd_puts>:
     1e8:	cf 93       	push	r28
     1ea:	df 93       	push	r29
     1ec:	ec 01       	movw	r28, r24
     1ee:	21 96       	adiw	r28, 0x01	; 1
     1f0:	fc 01       	movw	r30, r24
     1f2:	80 81       	ld	r24, Z
     1f4:	88 23       	and	r24, r24
     1f6:	29 f0       	breq	.+10     	; 0x202 <lcd_puts+0x1a>
     1f8:	0e 94 f0 00 	call	0x1e0	; 0x1e0 <lcd_putc>
     1fc:	89 91       	ld	r24, Y+
     1fe:	81 11       	cpse	r24, r1
     200:	fb cf       	rjmp	.-10     	; 0x1f8 <lcd_puts+0x10>
     202:	df 91       	pop	r29
     204:	cf 91       	pop	r28
     206:	08 95       	ret

00000208 <lcd_init>:
*                  LCD_DISP_ON_CURSOR      display on, cursor on
*                  LCD_DISP_CURSOR_BLINK   display on, cursor on flashing
*  Returns:  none
*************************************************************************/
void lcd_init(uint8_t dispAttr)
{
     208:	cf 93       	push	r28
     20a:	c8 2f       	mov	r28, r24
        DDR(LCD_E_PORT)     |= _BV(LCD_E_PIN);
    }
    else
    {
        /* configure all port bits as output (LCD data and control lines on different ports */
        DDR(LCD_RS_PORT)    |= _BV(LCD_RS_PIN);
     20c:	20 9a       	sbi	0x04, 0	; 4
        DDR(LCD_RW_PORT)    |= _BV(LCD_RW_PIN);
     20e:	55 9a       	sbi	0x0a, 5	; 10
        DDR(LCD_E_PORT)     |= _BV(LCD_E_PIN);
     210:	21 9a       	sbi	0x04, 1	; 4
        DDR(LCD_DATA0_PORT) |= _BV(LCD_DATA0_PIN);
     212:	54 9a       	sbi	0x0a, 4	; 10
        DDR(LCD_DATA1_PORT) |= _BV(LCD_DATA1_PIN);
     214:	55 9a       	sbi	0x0a, 5	; 10
        DDR(LCD_DATA2_PORT) |= _BV(LCD_DATA2_PIN);
     216:	56 9a       	sbi	0x0a, 6	; 10
        DDR(LCD_DATA3_PORT) |= _BV(LCD_DATA3_PIN);
     218:	57 9a       	sbi	0x0a, 7	; 10
	#else
		//round up by default
		__ticks_dc = (uint32_t)(ceil(fabs(__tmp)));
	#endif

	__builtin_avr_delay_cycles(__ticks_dc);
     21a:	8f ef       	ldi	r24, 0xFF	; 255
     21c:	99 ef       	ldi	r25, 0xF9	; 249
     21e:	01 97       	sbiw	r24, 0x01	; 1
     220:	f1 f7       	brne	.-4      	; 0x21e <lcd_init+0x16>
     222:	00 c0       	rjmp	.+0      	; 0x224 <lcd_init+0x1c>
     224:	00 00       	nop
    }
    delay(LCD_DELAY_BOOTUP); /* wait 16ms or more after power-on       */

    /* initial write to lcd is 8bit */
    LCD_DATA1_PORT |= _BV(LCD_DATA1_PIN); // LCD_FUNCTION>>4;
     226:	5d 9a       	sbi	0x0b, 5	; 11
    LCD_DATA0_PORT |= _BV(LCD_DATA0_PIN); // LCD_FUNCTION_8BIT>>4;
     228:	5c 9a       	sbi	0x0b, 4	; 11
    lcd_e_toggle();
     22a:	0e 94 9f 00 	call	0x13e	; 0x13e <toggle_e>
     22e:	8f e1       	ldi	r24, 0x1F	; 31
     230:	9e e4       	ldi	r25, 0x4E	; 78
     232:	01 97       	sbiw	r24, 0x01	; 1
     234:	f1 f7       	brne	.-4      	; 0x232 <lcd_init+0x2a>
     236:	00 c0       	rjmp	.+0      	; 0x238 <lcd_init+0x30>
     238:	00 00       	nop
    delay(LCD_DELAY_INIT); /* delay, busy flag can't be checked here */

    /* repeat last command */
    lcd_e_toggle();
     23a:	0e 94 9f 00 	call	0x13e	; 0x13e <toggle_e>
     23e:	8f ef       	ldi	r24, 0xFF	; 255
     240:	90 e0       	ldi	r25, 0x00	; 0
     242:	01 97       	sbiw	r24, 0x01	; 1
     244:	f1 f7       	brne	.-4      	; 0x242 <lcd_init+0x3a>
     246:	00 c0       	rjmp	.+0      	; 0x248 <lcd_init+0x40>
     248:	00 00       	nop
    delay(LCD_DELAY_INIT_REP); /* delay, busy flag can't be checked here */

    /* repeat last command a third time */
    lcd_e_toggle();
     24a:	0e 94 9f 00 	call	0x13e	; 0x13e <toggle_e>
     24e:	8f ef       	ldi	r24, 0xFF	; 255
     250:	90 e0       	ldi	r25, 0x00	; 0
     252:	01 97       	sbiw	r24, 0x01	; 1
     254:	f1 f7       	brne	.-4      	; 0x252 <lcd_init+0x4a>
     256:	00 c0       	rjmp	.+0      	; 0x258 <lcd_init+0x50>
     258:	00 00       	nop
    delay(LCD_DELAY_INIT_REP); /* delay, busy flag can't be checked here */

    /* now configure for 4bit mode */
    LCD_DATA0_PORT &= ~_BV(LCD_DATA0_PIN); // LCD_FUNCTION_4BIT_1LINE>>4
     25a:	5c 98       	cbi	0x0b, 4	; 11
    lcd_e_toggle();
     25c:	0e 94 9f 00 	call	0x13e	; 0x13e <toggle_e>
     260:	8f ef       	ldi	r24, 0xFF	; 255
     262:	90 e0       	ldi	r25, 0x00	; 0
     264:	01 97       	sbiw	r24, 0x01	; 1
     266:	f1 f7       	brne	.-4      	; 0x264 <lcd_init+0x5c>
     268:	00 c0       	rjmp	.+0      	; 0x26a <lcd_init+0x62>
     26a:	00 00       	nop
    /* Display with KS0073 controller requires special commands for enabling 4 line mode */
    lcd_command(KS0073_EXTENDED_FUNCTION_REGISTER_ON);
    lcd_command(KS0073_4LINES_MODE);
    lcd_command(KS0073_EXTENDED_FUNCTION_REGISTER_OFF);
    #else
    lcd_command(LCD_FUNCTION_DEFAULT); /* function set: display lines  */
     26c:	88 e2       	ldi	r24, 0x28	; 40
     26e:	0e 94 da 00 	call	0x1b4	; 0x1b4 <lcd_command>
    #endif
    lcd_command(LCD_DISP_OFF);     /* display off                  */
     272:	88 e0       	ldi	r24, 0x08	; 8
     274:	0e 94 da 00 	call	0x1b4	; 0x1b4 <lcd_command>
    lcd_clrscr();                  /* display clear                */
     278:	0e 94 ec 00 	call	0x1d8	; 0x1d8 <lcd_clrscr>
    lcd_command(LCD_MODE_DEFAULT); /* set entry mode               */
     27c:	86 e0       	ldi	r24, 0x06	; 6
     27e:	0e 94 da 00 	call	0x1b4	; 0x1b4 <lcd_command>
    lcd_command(dispAttr);         /* display/cursor control       */
     282:	8c 2f       	mov	r24, r28
     284:	0e 94 da 00 	call	0x1b4	; 0x1b4 <lcd_command>
}/* lcd_init */
     288:	cf 91       	pop	r28
     28a:	08 95       	ret

0000028c <Display_dist>:
#include "project_functions.h"
#include "uart.h"

//display distances to sensor[id]
void Display_dist(uint8_t id,volatile float dist[], char string[])
{
     28c:	ef 92       	push	r14
     28e:	ff 92       	push	r15
     290:	1f 93       	push	r17
     292:	cf 93       	push	r28
     294:	df 93       	push	r29
     296:	18 2f       	mov	r17, r24
     298:	7a 01       	movw	r14, r20
	if (dist[id]<10)
     29a:	eb 01       	movw	r28, r22
     29c:	84 e0       	ldi	r24, 0x04	; 4
     29e:	18 9f       	mul	r17, r24
     2a0:	c0 0d       	add	r28, r0
     2a2:	d1 1d       	adc	r29, r1
     2a4:	11 24       	eor	r1, r1
     2a6:	68 81       	ld	r22, Y
     2a8:	79 81       	ldd	r23, Y+1	; 0x01
     2aa:	8a 81       	ldd	r24, Y+2	; 0x02
     2ac:	9b 81       	ldd	r25, Y+3	; 0x03
     2ae:	20 e0       	ldi	r18, 0x00	; 0
     2b0:	30 e0       	ldi	r19, 0x00	; 0
     2b2:	40 e2       	ldi	r20, 0x20	; 32
     2b4:	51 e4       	ldi	r21, 0x41	; 65
     2b6:	0e 94 c5 10 	call	0x218a	; 0x218a <__cmpsf2>
     2ba:	88 23       	and	r24, r24
     2bc:	6c f4       	brge	.+26     	; 0x2d8 <Display_dist+0x4c>
	{
		lcd_gotoxy(14,id);		//set position to hundrets
     2be:	61 2f       	mov	r22, r17
     2c0:	8e e0       	ldi	r24, 0x0E	; 14
     2c2:	0e 94 e2 00 	call	0x1c4	; 0x1c4 <lcd_gotoxy>
		lcd_puts("  ");					//clear hundrets and tenths
     2c6:	8d ee       	ldi	r24, 0xED	; 237
     2c8:	91 e0       	ldi	r25, 0x01	; 1
     2ca:	0e 94 f4 00 	call	0x1e8	; 0x1e8 <lcd_puts>
		lcd_gotoxy(16, id);		//go to ones
     2ce:	61 2f       	mov	r22, r17
     2d0:	80 e1       	ldi	r24, 0x10	; 16
     2d2:	0e 94 e2 00 	call	0x1c4	; 0x1c4 <lcd_gotoxy>
     2d6:	29 c0       	rjmp	.+82     	; 0x32a <Display_dist+0x9e>
	}
	
	else if (dist[id]>=10 && dist[id]<100)
     2d8:	68 81       	ld	r22, Y
     2da:	79 81       	ldd	r23, Y+1	; 0x01
     2dc:	8a 81       	ldd	r24, Y+2	; 0x02
     2de:	9b 81       	ldd	r25, Y+3	; 0x03
     2e0:	20 e0       	ldi	r18, 0x00	; 0
     2e2:	30 e0       	ldi	r19, 0x00	; 0
     2e4:	40 e2       	ldi	r20, 0x20	; 32
     2e6:	51 e4       	ldi	r21, 0x41	; 65
     2e8:	0e 94 75 11 	call	0x22ea	; 0x22ea <__gesf2>
     2ec:	88 23       	and	r24, r24
     2ee:	cc f0       	brlt	.+50     	; 0x322 <Display_dist+0x96>
     2f0:	68 81       	ld	r22, Y
     2f2:	79 81       	ldd	r23, Y+1	; 0x01
     2f4:	8a 81       	ldd	r24, Y+2	; 0x02
     2f6:	9b 81       	ldd	r25, Y+3	; 0x03
     2f8:	20 e0       	ldi	r18, 0x00	; 0
     2fa:	30 e0       	ldi	r19, 0x00	; 0
     2fc:	48 ec       	ldi	r20, 0xC8	; 200
     2fe:	52 e4       	ldi	r21, 0x42	; 66
     300:	0e 94 c5 10 	call	0x218a	; 0x218a <__cmpsf2>
     304:	88 23       	and	r24, r24
     306:	6c f4       	brge	.+26     	; 0x322 <Display_dist+0x96>
	{
		lcd_gotoxy(14,id);		//set position to hundrets
     308:	61 2f       	mov	r22, r17
     30a:	8e e0       	ldi	r24, 0x0E	; 14
     30c:	0e 94 e2 00 	call	0x1c4	; 0x1c4 <lcd_gotoxy>
		lcd_puts(" ");					//clear hundrets
     310:	8e ee       	ldi	r24, 0xEE	; 238
     312:	91 e0       	ldi	r25, 0x01	; 1
     314:	0e 94 f4 00 	call	0x1e8	; 0x1e8 <lcd_puts>
		lcd_gotoxy(15, id);		//set position to tenths
     318:	61 2f       	mov	r22, r17
     31a:	8f e0       	ldi	r24, 0x0F	; 15
     31c:	0e 94 e2 00 	call	0x1c4	; 0x1c4 <lcd_gotoxy>
     320:	04 c0       	rjmp	.+8      	; 0x32a <Display_dist+0x9e>
	}
	else
	{
		lcd_gotoxy(14, id);		//set position to hundrets
     322:	61 2f       	mov	r22, r17
     324:	8e e0       	ldi	r24, 0x0E	; 14
     326:	0e 94 e2 00 	call	0x1c4	; 0x1c4 <lcd_gotoxy>
	}
	lcd_puts(string);				//display distance on lcd
     32a:	c7 01       	movw	r24, r14
     32c:	0e 94 f4 00 	call	0x1e8	; 0x1e8 <lcd_puts>
}
     330:	df 91       	pop	r29
     332:	cf 91       	pop	r28
     334:	1f 91       	pop	r17
     336:	ff 90       	pop	r15
     338:	ef 90       	pop	r14
     33a:	08 95       	ret

0000033c <Update_warning>:

//update warning message based on smaller distance
void Update_warning(int sm_dist)
{	
     33c:	cf 93       	push	r28
     33e:	df 93       	push	r29
     340:	ec 01       	movw	r28, r24
	LEDs_off();
     342:	0e 94 5d 0d 	call	0x1aba	; 0x1aba <LEDs_off>

	if (sm_dist>=400)
     346:	c0 39       	cpi	r28, 0x90	; 144
     348:	81 e0       	ldi	r24, 0x01	; 1
     34a:	d8 07       	cpc	r29, r24
     34c:	4c f0       	brlt	.+18     	; 0x360 <Update_warning+0x24>
	{
		
		lcd_gotoxy(22, 2);
     34e:	62 e0       	ldi	r22, 0x02	; 2
     350:	86 e1       	ldi	r24, 0x16	; 22
     352:	0e 94 e2 00 	call	0x1c4	; 0x1c4 <lcd_gotoxy>
		lcd_puts("OUTSIDE OF RANGE!");
     356:	81 e3       	ldi	r24, 0x31	; 49
     358:	91 e0       	ldi	r25, 0x01	; 1
     35a:	0e 94 f4 00 	call	0x1e8	; 0x1e8 <lcd_puts>
     35e:	56 c0       	rjmp	.+172    	; 0x40c <__LOCK_REGION_LENGTH__+0xc>
	}

	else if (sm_dist <= 400 && sm_dist > 200)
     360:	ce 01       	movw	r24, r28
     362:	89 5c       	subi	r24, 0xC9	; 201
     364:	91 09       	sbc	r25, r1
     366:	88 3c       	cpi	r24, 0xC8	; 200
     368:	91 05       	cpc	r25, r1
     36a:	68 f4       	brcc	.+26     	; 0x386 <Update_warning+0x4a>
	{
		LED_toggle(1);
     36c:	81 e0       	ldi	r24, 0x01	; 1
     36e:	90 e0       	ldi	r25, 0x00	; 0
     370:	0e 94 77 0d 	call	0x1aee	; 0x1aee <LED_toggle>
		lcd_gotoxy(22, 2);
     374:	62 e0       	ldi	r22, 0x02	; 2
     376:	86 e1       	ldi	r24, 0x16	; 22
     378:	0e 94 e2 00 	call	0x1c4	; 0x1c4 <lcd_gotoxy>
		lcd_puts("    ALL CLEAR!    ");
     37c:	83 e4       	ldi	r24, 0x43	; 67
     37e:	91 e0       	ldi	r25, 0x01	; 1
     380:	0e 94 f4 00 	call	0x1e8	; 0x1e8 <lcd_puts>
     384:	43 c0       	rjmp	.+134    	; 0x40c <__LOCK_REGION_LENGTH__+0xc>
	}
	else if (sm_dist <= 200 && sm_dist > 100)
     386:	ce 01       	movw	r24, r28
     388:	85 56       	subi	r24, 0x65	; 101
     38a:	91 09       	sbc	r25, r1
     38c:	84 36       	cpi	r24, 0x64	; 100
     38e:	91 05       	cpc	r25, r1
     390:	68 f4       	brcc	.+26     	; 0x3ac <Update_warning+0x70>
	{
		LED_toggle(2);
     392:	82 e0       	ldi	r24, 0x02	; 2
     394:	90 e0       	ldi	r25, 0x00	; 0
     396:	0e 94 77 0d 	call	0x1aee	; 0x1aee <LED_toggle>
		lcd_gotoxy(23, 2);
     39a:	62 e0       	ldi	r22, 0x02	; 2
     39c:	87 e1       	ldi	r24, 0x17	; 23
     39e:	0e 94 e2 00 	call	0x1c4	; 0x1c4 <lcd_gotoxy>
		lcd_puts("   PRIHORIVA!  ");
     3a2:	86 e5       	ldi	r24, 0x56	; 86
     3a4:	91 e0       	ldi	r25, 0x01	; 1
     3a6:	0e 94 f4 00 	call	0x1e8	; 0x1e8 <lcd_puts>
     3aa:	30 c0       	rjmp	.+96     	; 0x40c <__LOCK_REGION_LENGTH__+0xc>
	}

	else if (sm_dist <= 100 && sm_dist > 50)
     3ac:	ce 01       	movw	r24, r28
     3ae:	c3 97       	sbiw	r24, 0x33	; 51
     3b0:	c2 97       	sbiw	r24, 0x32	; 50
     3b2:	68 f4       	brcc	.+26     	; 0x3ce <Update_warning+0x92>
	{
		LED_toggle(3);
     3b4:	83 e0       	ldi	r24, 0x03	; 3
     3b6:	90 e0       	ldi	r25, 0x00	; 0
     3b8:	0e 94 77 0d 	call	0x1aee	; 0x1aee <LED_toggle>
		lcd_gotoxy(23, 2);
     3bc:	62 e0       	ldi	r22, 0x02	; 2
     3be:	87 e1       	ldi	r24, 0x17	; 23
     3c0:	0e 94 e2 00 	call	0x1c4	; 0x1c4 <lcd_gotoxy>
		lcd_puts("    !!SLOW!! ");
     3c4:	86 e6       	ldi	r24, 0x66	; 102
     3c6:	91 e0       	ldi	r25, 0x01	; 1
     3c8:	0e 94 f4 00 	call	0x1e8	; 0x1e8 <lcd_puts>
     3cc:	1f c0       	rjmp	.+62     	; 0x40c <__LOCK_REGION_LENGTH__+0xc>
	}
	else if (sm_dist <= 50 && sm_dist>10 )
     3ce:	ce 01       	movw	r24, r28
     3d0:	0b 97       	sbiw	r24, 0x0b	; 11
     3d2:	88 97       	sbiw	r24, 0x28	; 40
     3d4:	68 f4       	brcc	.+26     	; 0x3f0 <Update_warning+0xb4>
	{
		LED_toggle(4);
     3d6:	84 e0       	ldi	r24, 0x04	; 4
     3d8:	90 e0       	ldi	r25, 0x00	; 0
     3da:	0e 94 77 0d 	call	0x1aee	; 0x1aee <LED_toggle>
		lcd_gotoxy(23, 2);
     3de:	62 e0       	ldi	r22, 0x02	; 2
     3e0:	87 e1       	ldi	r24, 0x17	; 23
     3e2:	0e 94 e2 00 	call	0x1c4	; 0x1c4 <lcd_gotoxy>
		lcd_puts("   !!STOP!! ");
     3e6:	84 e7       	ldi	r24, 0x74	; 116
     3e8:	91 e0       	ldi	r25, 0x01	; 1
     3ea:	0e 94 f4 00 	call	0x1e8	; 0x1e8 <lcd_puts>
     3ee:	0e c0       	rjmp	.+28     	; 0x40c <__LOCK_REGION_LENGTH__+0xc>
	}
	else if (sm_dist <= 10 )
     3f0:	2b 97       	sbiw	r28, 0x0b	; 11
     3f2:	64 f4       	brge	.+24     	; 0x40c <__LOCK_REGION_LENGTH__+0xc>
	{
		LED_toggle(5);
     3f4:	85 e0       	ldi	r24, 0x05	; 5
     3f6:	90 e0       	ldi	r25, 0x00	; 0
     3f8:	0e 94 77 0d 	call	0x1aee	; 0x1aee <LED_toggle>
		lcd_gotoxy(23, 2);
     3fc:	62 e0       	ldi	r22, 0x02	; 2
     3fe:	87 e1       	ldi	r24, 0x17	; 23
     400:	0e 94 e2 00 	call	0x1c4	; 0x1c4 <lcd_gotoxy>
		lcd_puts("   !!STOP!! ");
     404:	84 e7       	ldi	r24, 0x74	; 116
     406:	91 e0       	ldi	r25, 0x01	; 1
     408:	0e 94 f4 00 	call	0x1e8	; 0x1e8 <lcd_puts>
	}	
	

}
     40c:	df 91       	pop	r29
     40e:	cf 91       	pop	r28
     410:	08 95       	ret

00000412 <Uart_info>:

//display info about obstacles in front/back/both
void Uart_info(volatile float dist[]){
     412:	cf 93       	push	r28
     414:	df 93       	push	r29
     416:	ec 01       	movw	r28, r24
	if (dist[0]<100 && dist[1]<100)
     418:	68 81       	ld	r22, Y
     41a:	79 81       	ldd	r23, Y+1	; 0x01
     41c:	8a 81       	ldd	r24, Y+2	; 0x02
     41e:	9b 81       	ldd	r25, Y+3	; 0x03
     420:	20 e0       	ldi	r18, 0x00	; 0
     422:	30 e0       	ldi	r19, 0x00	; 0
     424:	48 ec       	ldi	r20, 0xC8	; 200
     426:	52 e4       	ldi	r21, 0x42	; 66
     428:	0e 94 c5 10 	call	0x218a	; 0x218a <__cmpsf2>
     42c:	88 23       	and	r24, r24
     42e:	8c f4       	brge	.+34     	; 0x452 <Uart_info+0x40>
     430:	6c 81       	ldd	r22, Y+4	; 0x04
     432:	7d 81       	ldd	r23, Y+5	; 0x05
     434:	8e 81       	ldd	r24, Y+6	; 0x06
     436:	9f 81       	ldd	r25, Y+7	; 0x07
     438:	20 e0       	ldi	r18, 0x00	; 0
     43a:	30 e0       	ldi	r19, 0x00	; 0
     43c:	48 ec       	ldi	r20, 0xC8	; 200
     43e:	52 e4       	ldi	r21, 0x42	; 66
     440:	0e 94 c5 10 	call	0x218a	; 0x218a <__cmpsf2>
     444:	88 23       	and	r24, r24
     446:	2c f4       	brge	.+10     	; 0x452 <Uart_info+0x40>
	{
		uart_puts("Obstacles in front and back!\n");
     448:	81 e8       	ldi	r24, 0x81	; 129
     44a:	91 e0       	ldi	r25, 0x01	; 1
     44c:	0e 94 49 10 	call	0x2092	; 0x2092 <uart_puts>
     450:	26 c0       	rjmp	.+76     	; 0x49e <Uart_info+0x8c>
	}
	else if (dist[0]<100)
     452:	68 81       	ld	r22, Y
     454:	79 81       	ldd	r23, Y+1	; 0x01
     456:	8a 81       	ldd	r24, Y+2	; 0x02
     458:	9b 81       	ldd	r25, Y+3	; 0x03
     45a:	20 e0       	ldi	r18, 0x00	; 0
     45c:	30 e0       	ldi	r19, 0x00	; 0
     45e:	48 ec       	ldi	r20, 0xC8	; 200
     460:	52 e4       	ldi	r21, 0x42	; 66
     462:	0e 94 c5 10 	call	0x218a	; 0x218a <__cmpsf2>
     466:	88 23       	and	r24, r24
     468:	2c f4       	brge	.+10     	; 0x474 <Uart_info+0x62>
	{
		uart_puts("Obstacle in front!\n");
     46a:	8f e9       	ldi	r24, 0x9F	; 159
     46c:	91 e0       	ldi	r25, 0x01	; 1
     46e:	0e 94 49 10 	call	0x2092	; 0x2092 <uart_puts>
     472:	15 c0       	rjmp	.+42     	; 0x49e <Uart_info+0x8c>
	}
	else if (dist[1]<100)
     474:	6c 81       	ldd	r22, Y+4	; 0x04
     476:	7d 81       	ldd	r23, Y+5	; 0x05
     478:	8e 81       	ldd	r24, Y+6	; 0x06
     47a:	9f 81       	ldd	r25, Y+7	; 0x07
     47c:	20 e0       	ldi	r18, 0x00	; 0
     47e:	30 e0       	ldi	r19, 0x00	; 0
     480:	48 ec       	ldi	r20, 0xC8	; 200
     482:	52 e4       	ldi	r21, 0x42	; 66
     484:	0e 94 c5 10 	call	0x218a	; 0x218a <__cmpsf2>
     488:	88 23       	and	r24, r24
     48a:	2c f4       	brge	.+10     	; 0x496 <Uart_info+0x84>
	{
		uart_puts("Obstacle in back!\n");
     48c:	83 eb       	ldi	r24, 0xB3	; 179
     48e:	91 e0       	ldi	r25, 0x01	; 1
     490:	0e 94 49 10 	call	0x2092	; 0x2092 <uart_puts>
     494:	04 c0       	rjmp	.+8      	; 0x49e <Uart_info+0x8c>
	}
	else
	{
		uart_puts("No obstacle nearby!\n");
     496:	86 ec       	ldi	r24, 0xC6	; 198
     498:	91 e0       	ldi	r25, 0x01	; 1
     49a:	0e 94 49 10 	call	0x2092	; 0x2092 <uart_puts>
	}
}
     49e:	df 91       	pop	r29
     4a0:	cf 91       	pop	r28
     4a2:	08 95       	ret

000004a4 <Load_bar>:
//displays bar on lcd based on the smaller distance
void Load_bar(int distance){
	if (distance>=500)
     4a4:	84 3f       	cpi	r24, 0xF4	; 244
     4a6:	21 e0       	ldi	r18, 0x01	; 1
     4a8:	92 07       	cpc	r25, r18
     4aa:	4c f0       	brlt	.+18     	; 0x4be <Load_bar+0x1a>
	{
		lcd_gotoxy(20,0);
     4ac:	60 e0       	ldi	r22, 0x00	; 0
     4ae:	84 e1       	ldi	r24, 0x14	; 20
     4b0:	0e 94 e2 00 	call	0x1c4	; 0x1c4 <lcd_gotoxy>
		lcd_puts("                    ");
     4b4:	8b ed       	ldi	r24, 0xDB	; 219
     4b6:	91 e0       	ldi	r25, 0x01	; 1
     4b8:	0e 94 f4 00 	call	0x1e8	; 0x1e8 <lcd_puts>
     4bc:	08 95       	ret
	}
	else if (distance<=500 && distance>490)
     4be:	9c 01       	movw	r18, r24
     4c0:	2b 5e       	subi	r18, 0xEB	; 235
     4c2:	31 40       	sbci	r19, 0x01	; 1
     4c4:	2a 30       	cpi	r18, 0x0A	; 10
     4c6:	31 05       	cpc	r19, r1
     4c8:	80 f4       	brcc	.+32     	; 0x4ea <Load_bar+0x46>
	{
		lcd_gotoxy(20,0);
     4ca:	60 e0       	ldi	r22, 0x00	; 0
     4cc:	84 e1       	ldi	r24, 0x14	; 20
     4ce:	0e 94 e2 00 	call	0x1c4	; 0x1c4 <lcd_gotoxy>
		lcd_putc(1);
     4d2:	81 e0       	ldi	r24, 0x01	; 1
     4d4:	0e 94 f0 00 	call	0x1e0	; 0x1e0 <lcd_putc>
		lcd_gotoxy(21,0);
     4d8:	60 e0       	ldi	r22, 0x00	; 0
     4da:	85 e1       	ldi	r24, 0x15	; 21
     4dc:	0e 94 e2 00 	call	0x1c4	; 0x1c4 <lcd_gotoxy>
		lcd_puts("                    ");
     4e0:	8b ed       	ldi	r24, 0xDB	; 219
     4e2:	91 e0       	ldi	r25, 0x01	; 1
     4e4:	0e 94 f4 00 	call	0x1e8	; 0x1e8 <lcd_puts>
     4e8:	08 95       	ret
	}
	else if (distance<=490 && distance>480)
     4ea:	9c 01       	movw	r18, r24
     4ec:	21 5e       	subi	r18, 0xE1	; 225
     4ee:	31 40       	sbci	r19, 0x01	; 1
     4f0:	2a 30       	cpi	r18, 0x0A	; 10
     4f2:	31 05       	cpc	r19, r1
     4f4:	80 f4       	brcc	.+32     	; 0x516 <Load_bar+0x72>
	{
		lcd_gotoxy(20,0);
     4f6:	60 e0       	ldi	r22, 0x00	; 0
     4f8:	84 e1       	ldi	r24, 0x14	; 20
     4fa:	0e 94 e2 00 	call	0x1c4	; 0x1c4 <lcd_gotoxy>
		lcd_putc(2);
     4fe:	82 e0       	ldi	r24, 0x02	; 2
     500:	0e 94 f0 00 	call	0x1e0	; 0x1e0 <lcd_putc>
		lcd_gotoxy(21,0);
     504:	60 e0       	ldi	r22, 0x00	; 0
     506:	85 e1       	ldi	r24, 0x15	; 21
     508:	0e 94 e2 00 	call	0x1c4	; 0x1c4 <lcd_gotoxy>
		lcd_puts("                    ");
     50c:	8b ed       	ldi	r24, 0xDB	; 219
     50e:	91 e0       	ldi	r25, 0x01	; 1
     510:	0e 94 f4 00 	call	0x1e8	; 0x1e8 <lcd_puts>
     514:	08 95       	ret
	}
	else if (distance<=480 && distance>470)
     516:	9c 01       	movw	r18, r24
     518:	27 5d       	subi	r18, 0xD7	; 215
     51a:	31 40       	sbci	r19, 0x01	; 1
     51c:	2a 30       	cpi	r18, 0x0A	; 10
     51e:	31 05       	cpc	r19, r1
     520:	80 f4       	brcc	.+32     	; 0x542 <Load_bar+0x9e>
	{
		lcd_gotoxy(20,0);
     522:	60 e0       	ldi	r22, 0x00	; 0
     524:	84 e1       	ldi	r24, 0x14	; 20
     526:	0e 94 e2 00 	call	0x1c4	; 0x1c4 <lcd_gotoxy>
		lcd_putc(3);
     52a:	83 e0       	ldi	r24, 0x03	; 3
     52c:	0e 94 f0 00 	call	0x1e0	; 0x1e0 <lcd_putc>
		lcd_gotoxy(21,0);
     530:	60 e0       	ldi	r22, 0x00	; 0
     532:	85 e1       	ldi	r24, 0x15	; 21
     534:	0e 94 e2 00 	call	0x1c4	; 0x1c4 <lcd_gotoxy>
		lcd_puts("                    ");
     538:	8b ed       	ldi	r24, 0xDB	; 219
     53a:	91 e0       	ldi	r25, 0x01	; 1
     53c:	0e 94 f4 00 	call	0x1e8	; 0x1e8 <lcd_puts>
     540:	08 95       	ret
	}
	else if (distance<=470 && distance>460)
     542:	9c 01       	movw	r18, r24
     544:	2d 5c       	subi	r18, 0xCD	; 205
     546:	31 40       	sbci	r19, 0x01	; 1
     548:	2a 30       	cpi	r18, 0x0A	; 10
     54a:	31 05       	cpc	r19, r1
     54c:	80 f4       	brcc	.+32     	; 0x56e <Load_bar+0xca>
	{
		lcd_gotoxy(20,0);
     54e:	60 e0       	ldi	r22, 0x00	; 0
     550:	84 e1       	ldi	r24, 0x14	; 20
     552:	0e 94 e2 00 	call	0x1c4	; 0x1c4 <lcd_gotoxy>
		lcd_putc(4);
     556:	84 e0       	ldi	r24, 0x04	; 4
     558:	0e 94 f0 00 	call	0x1e0	; 0x1e0 <lcd_putc>
		lcd_gotoxy(21,0);
     55c:	60 e0       	ldi	r22, 0x00	; 0
     55e:	85 e1       	ldi	r24, 0x15	; 21
     560:	0e 94 e2 00 	call	0x1c4	; 0x1c4 <lcd_gotoxy>
		lcd_puts("                    ");
     564:	8b ed       	ldi	r24, 0xDB	; 219
     566:	91 e0       	ldi	r25, 0x01	; 1
     568:	0e 94 f4 00 	call	0x1e8	; 0x1e8 <lcd_puts>
     56c:	08 95       	ret
	}
	else if (distance<=460 && distance>450)
     56e:	9c 01       	movw	r18, r24
     570:	23 5c       	subi	r18, 0xC3	; 195
     572:	31 40       	sbci	r19, 0x01	; 1
     574:	2a 30       	cpi	r18, 0x0A	; 10
     576:	31 05       	cpc	r19, r1
     578:	80 f4       	brcc	.+32     	; 0x59a <Load_bar+0xf6>
	{
		lcd_gotoxy(20,0);
     57a:	60 e0       	ldi	r22, 0x00	; 0
     57c:	84 e1       	ldi	r24, 0x14	; 20
     57e:	0e 94 e2 00 	call	0x1c4	; 0x1c4 <lcd_gotoxy>
		lcd_putc(5);
     582:	85 e0       	ldi	r24, 0x05	; 5
     584:	0e 94 f0 00 	call	0x1e0	; 0x1e0 <lcd_putc>
		lcd_gotoxy(21,0);
     588:	60 e0       	ldi	r22, 0x00	; 0
     58a:	85 e1       	ldi	r24, 0x15	; 21
     58c:	0e 94 e2 00 	call	0x1c4	; 0x1c4 <lcd_gotoxy>
		lcd_puts("                    ");
     590:	8b ed       	ldi	r24, 0xDB	; 219
     592:	91 e0       	ldi	r25, 0x01	; 1
     594:	0e 94 f4 00 	call	0x1e8	; 0x1e8 <lcd_puts>
     598:	08 95       	ret
		lcd_gotoxy(21,0);
		lcd_putc(1);
		lcd_gotoxy(22,0);
		lcd_puts("                   ");
	}
	else if (distance<=450 && distance>440)
     59a:	9c 01       	movw	r18, r24
     59c:	29 5b       	subi	r18, 0xB9	; 185
     59e:	31 40       	sbci	r19, 0x01	; 1
     5a0:	2a 30       	cpi	r18, 0x0A	; 10
     5a2:	31 05       	cpc	r19, r1
     5a4:	b8 f4       	brcc	.+46     	; 0x5d4 <Load_bar+0x130>
	{
		lcd_gotoxy(20,0);
     5a6:	60 e0       	ldi	r22, 0x00	; 0
     5a8:	84 e1       	ldi	r24, 0x14	; 20
     5aa:	0e 94 e2 00 	call	0x1c4	; 0x1c4 <lcd_gotoxy>
		lcd_putc(5);
     5ae:	85 e0       	ldi	r24, 0x05	; 5
     5b0:	0e 94 f0 00 	call	0x1e0	; 0x1e0 <lcd_putc>
		lcd_gotoxy(21,0);
     5b4:	60 e0       	ldi	r22, 0x00	; 0
     5b6:	85 e1       	ldi	r24, 0x15	; 21
     5b8:	0e 94 e2 00 	call	0x1c4	; 0x1c4 <lcd_gotoxy>
		lcd_putc(2);
     5bc:	82 e0       	ldi	r24, 0x02	; 2
     5be:	0e 94 f0 00 	call	0x1e0	; 0x1e0 <lcd_putc>
		lcd_gotoxy(22,0);
     5c2:	60 e0       	ldi	r22, 0x00	; 0
     5c4:	86 e1       	ldi	r24, 0x16	; 22
     5c6:	0e 94 e2 00 	call	0x1c4	; 0x1c4 <lcd_gotoxy>
		lcd_puts("                   ");
     5ca:	8c ed       	ldi	r24, 0xDC	; 220
     5cc:	91 e0       	ldi	r25, 0x01	; 1
     5ce:	0e 94 f4 00 	call	0x1e8	; 0x1e8 <lcd_puts>
     5d2:	08 95       	ret
	}
	else if (distance<=440 && distance>430)
     5d4:	9c 01       	movw	r18, r24
     5d6:	2f 5a       	subi	r18, 0xAF	; 175
     5d8:	31 40       	sbci	r19, 0x01	; 1
     5da:	2a 30       	cpi	r18, 0x0A	; 10
     5dc:	31 05       	cpc	r19, r1
     5de:	b8 f4       	brcc	.+46     	; 0x60e <Load_bar+0x16a>
	{
		lcd_gotoxy(20,0);
     5e0:	60 e0       	ldi	r22, 0x00	; 0
     5e2:	84 e1       	ldi	r24, 0x14	; 20
     5e4:	0e 94 e2 00 	call	0x1c4	; 0x1c4 <lcd_gotoxy>
		lcd_putc(5);
     5e8:	85 e0       	ldi	r24, 0x05	; 5
     5ea:	0e 94 f0 00 	call	0x1e0	; 0x1e0 <lcd_putc>
		lcd_gotoxy(21,0);
     5ee:	60 e0       	ldi	r22, 0x00	; 0
     5f0:	85 e1       	ldi	r24, 0x15	; 21
     5f2:	0e 94 e2 00 	call	0x1c4	; 0x1c4 <lcd_gotoxy>
		lcd_putc(3);
     5f6:	83 e0       	ldi	r24, 0x03	; 3
     5f8:	0e 94 f0 00 	call	0x1e0	; 0x1e0 <lcd_putc>
		lcd_gotoxy(22,0);
     5fc:	60 e0       	ldi	r22, 0x00	; 0
     5fe:	86 e1       	ldi	r24, 0x16	; 22
     600:	0e 94 e2 00 	call	0x1c4	; 0x1c4 <lcd_gotoxy>
		lcd_puts("                   ");
     604:	8c ed       	ldi	r24, 0xDC	; 220
     606:	91 e0       	ldi	r25, 0x01	; 1
     608:	0e 94 f4 00 	call	0x1e8	; 0x1e8 <lcd_puts>
     60c:	08 95       	ret
	}
	else if (distance<=430 && distance>420)
     60e:	9c 01       	movw	r18, r24
     610:	25 5a       	subi	r18, 0xA5	; 165
     612:	31 40       	sbci	r19, 0x01	; 1
     614:	2a 30       	cpi	r18, 0x0A	; 10
     616:	31 05       	cpc	r19, r1
     618:	b8 f4       	brcc	.+46     	; 0x648 <Load_bar+0x1a4>
	{
		lcd_gotoxy(20,0);
     61a:	60 e0       	ldi	r22, 0x00	; 0
     61c:	84 e1       	ldi	r24, 0x14	; 20
     61e:	0e 94 e2 00 	call	0x1c4	; 0x1c4 <lcd_gotoxy>
		lcd_putc(5);
     622:	85 e0       	ldi	r24, 0x05	; 5
     624:	0e 94 f0 00 	call	0x1e0	; 0x1e0 <lcd_putc>
		lcd_gotoxy(21,0);
     628:	60 e0       	ldi	r22, 0x00	; 0
     62a:	85 e1       	ldi	r24, 0x15	; 21
     62c:	0e 94 e2 00 	call	0x1c4	; 0x1c4 <lcd_gotoxy>
		lcd_putc(4);
     630:	84 e0       	ldi	r24, 0x04	; 4
     632:	0e 94 f0 00 	call	0x1e0	; 0x1e0 <lcd_putc>
		lcd_gotoxy(22,0);
     636:	60 e0       	ldi	r22, 0x00	; 0
     638:	86 e1       	ldi	r24, 0x16	; 22
     63a:	0e 94 e2 00 	call	0x1c4	; 0x1c4 <lcd_gotoxy>
		lcd_puts("                   ");
     63e:	8c ed       	ldi	r24, 0xDC	; 220
     640:	91 e0       	ldi	r25, 0x01	; 1
     642:	0e 94 f4 00 	call	0x1e8	; 0x1e8 <lcd_puts>
     646:	08 95       	ret
	}
	else if (distance<=420 && distance>410)
     648:	9c 01       	movw	r18, r24
     64a:	2b 59       	subi	r18, 0x9B	; 155
     64c:	31 40       	sbci	r19, 0x01	; 1
     64e:	2a 30       	cpi	r18, 0x0A	; 10
     650:	31 05       	cpc	r19, r1
     652:	b8 f4       	brcc	.+46     	; 0x682 <Load_bar+0x1de>
	{
		lcd_gotoxy(20,0);
     654:	60 e0       	ldi	r22, 0x00	; 0
     656:	84 e1       	ldi	r24, 0x14	; 20
     658:	0e 94 e2 00 	call	0x1c4	; 0x1c4 <lcd_gotoxy>
		lcd_putc(5);
     65c:	85 e0       	ldi	r24, 0x05	; 5
     65e:	0e 94 f0 00 	call	0x1e0	; 0x1e0 <lcd_putc>
		lcd_gotoxy(21,0);
     662:	60 e0       	ldi	r22, 0x00	; 0
     664:	85 e1       	ldi	r24, 0x15	; 21
     666:	0e 94 e2 00 	call	0x1c4	; 0x1c4 <lcd_gotoxy>
		lcd_putc(5);
     66a:	85 e0       	ldi	r24, 0x05	; 5
     66c:	0e 94 f0 00 	call	0x1e0	; 0x1e0 <lcd_putc>
		lcd_gotoxy(22,0);
     670:	60 e0       	ldi	r22, 0x00	; 0
     672:	86 e1       	ldi	r24, 0x16	; 22
     674:	0e 94 e2 00 	call	0x1c4	; 0x1c4 <lcd_gotoxy>
		lcd_puts("                   ");
     678:	8c ed       	ldi	r24, 0xDC	; 220
     67a:	91 e0       	ldi	r25, 0x01	; 1
     67c:	0e 94 f4 00 	call	0x1e8	; 0x1e8 <lcd_puts>
     680:	08 95       	ret
	}
	else if (distance<=410 && distance>400)
     682:	9c 01       	movw	r18, r24
     684:	21 59       	subi	r18, 0x91	; 145
     686:	31 40       	sbci	r19, 0x01	; 1
     688:	2a 30       	cpi	r18, 0x0A	; 10
     68a:	31 05       	cpc	r19, r1
     68c:	f0 f4       	brcc	.+60     	; 0x6ca <Load_bar+0x226>
	{
		lcd_gotoxy(20,0);
     68e:	60 e0       	ldi	r22, 0x00	; 0
     690:	84 e1       	ldi	r24, 0x14	; 20
     692:	0e 94 e2 00 	call	0x1c4	; 0x1c4 <lcd_gotoxy>
		lcd_putc(5);
     696:	85 e0       	ldi	r24, 0x05	; 5
     698:	0e 94 f0 00 	call	0x1e0	; 0x1e0 <lcd_putc>
		lcd_gotoxy(21,0);
     69c:	60 e0       	ldi	r22, 0x00	; 0
     69e:	85 e1       	ldi	r24, 0x15	; 21
     6a0:	0e 94 e2 00 	call	0x1c4	; 0x1c4 <lcd_gotoxy>
		lcd_putc(5);
     6a4:	85 e0       	ldi	r24, 0x05	; 5
     6a6:	0e 94 f0 00 	call	0x1e0	; 0x1e0 <lcd_putc>
		lcd_gotoxy(22,0);
     6aa:	60 e0       	ldi	r22, 0x00	; 0
     6ac:	86 e1       	ldi	r24, 0x16	; 22
     6ae:	0e 94 e2 00 	call	0x1c4	; 0x1c4 <lcd_gotoxy>
		lcd_putc(1);
     6b2:	81 e0       	ldi	r24, 0x01	; 1
     6b4:	0e 94 f0 00 	call	0x1e0	; 0x1e0 <lcd_putc>
		lcd_gotoxy(23,0);
     6b8:	60 e0       	ldi	r22, 0x00	; 0
     6ba:	87 e1       	ldi	r24, 0x17	; 23
     6bc:	0e 94 e2 00 	call	0x1c4	; 0x1c4 <lcd_gotoxy>
		lcd_puts("                  ");
     6c0:	8d ed       	ldi	r24, 0xDD	; 221
     6c2:	91 e0       	ldi	r25, 0x01	; 1
     6c4:	0e 94 f4 00 	call	0x1e8	; 0x1e8 <lcd_puts>
     6c8:	08 95       	ret
	}
	else if (distance<=400 && distance>390)
     6ca:	9c 01       	movw	r18, r24
     6cc:	27 58       	subi	r18, 0x87	; 135
     6ce:	31 40       	sbci	r19, 0x01	; 1
     6d0:	2a 30       	cpi	r18, 0x0A	; 10
     6d2:	31 05       	cpc	r19, r1
     6d4:	f0 f4       	brcc	.+60     	; 0x712 <Load_bar+0x26e>
	{
		lcd_gotoxy(20,0);
     6d6:	60 e0       	ldi	r22, 0x00	; 0
     6d8:	84 e1       	ldi	r24, 0x14	; 20
     6da:	0e 94 e2 00 	call	0x1c4	; 0x1c4 <lcd_gotoxy>
		lcd_putc(5);
     6de:	85 e0       	ldi	r24, 0x05	; 5
     6e0:	0e 94 f0 00 	call	0x1e0	; 0x1e0 <lcd_putc>
		lcd_gotoxy(21,0);
     6e4:	60 e0       	ldi	r22, 0x00	; 0
     6e6:	85 e1       	ldi	r24, 0x15	; 21
     6e8:	0e 94 e2 00 	call	0x1c4	; 0x1c4 <lcd_gotoxy>
		lcd_putc(5);
     6ec:	85 e0       	ldi	r24, 0x05	; 5
     6ee:	0e 94 f0 00 	call	0x1e0	; 0x1e0 <lcd_putc>
		lcd_gotoxy(22,0);
     6f2:	60 e0       	ldi	r22, 0x00	; 0
     6f4:	86 e1       	ldi	r24, 0x16	; 22
     6f6:	0e 94 e2 00 	call	0x1c4	; 0x1c4 <lcd_gotoxy>
		lcd_putc(2);
     6fa:	82 e0       	ldi	r24, 0x02	; 2
     6fc:	0e 94 f0 00 	call	0x1e0	; 0x1e0 <lcd_putc>
		lcd_gotoxy(23,0);
     700:	60 e0       	ldi	r22, 0x00	; 0
     702:	87 e1       	ldi	r24, 0x17	; 23
     704:	0e 94 e2 00 	call	0x1c4	; 0x1c4 <lcd_gotoxy>
		lcd_puts("                  ");
     708:	8d ed       	ldi	r24, 0xDD	; 221
     70a:	91 e0       	ldi	r25, 0x01	; 1
     70c:	0e 94 f4 00 	call	0x1e8	; 0x1e8 <lcd_puts>
     710:	08 95       	ret
	}
	else if (distance<=390 && distance>=380)
     712:	9c 01       	movw	r18, r24
     714:	2c 57       	subi	r18, 0x7C	; 124
     716:	31 40       	sbci	r19, 0x01	; 1
     718:	2b 30       	cpi	r18, 0x0B	; 11
     71a:	31 05       	cpc	r19, r1
     71c:	f0 f4       	brcc	.+60     	; 0x75a <Load_bar+0x2b6>
	{
		lcd_gotoxy(20,0);
     71e:	60 e0       	ldi	r22, 0x00	; 0
     720:	84 e1       	ldi	r24, 0x14	; 20
     722:	0e 94 e2 00 	call	0x1c4	; 0x1c4 <lcd_gotoxy>
		lcd_putc(5);
     726:	85 e0       	ldi	r24, 0x05	; 5
     728:	0e 94 f0 00 	call	0x1e0	; 0x1e0 <lcd_putc>
		lcd_gotoxy(21,0);
     72c:	60 e0       	ldi	r22, 0x00	; 0
     72e:	85 e1       	ldi	r24, 0x15	; 21
     730:	0e 94 e2 00 	call	0x1c4	; 0x1c4 <lcd_gotoxy>
		lcd_putc(5);
     734:	85 e0       	ldi	r24, 0x05	; 5
     736:	0e 94 f0 00 	call	0x1e0	; 0x1e0 <lcd_putc>
		lcd_gotoxy(22,0);
     73a:	60 e0       	ldi	r22, 0x00	; 0
     73c:	86 e1       	ldi	r24, 0x16	; 22
     73e:	0e 94 e2 00 	call	0x1c4	; 0x1c4 <lcd_gotoxy>
		lcd_putc(3);
     742:	83 e0       	ldi	r24, 0x03	; 3
     744:	0e 94 f0 00 	call	0x1e0	; 0x1e0 <lcd_putc>
		lcd_gotoxy(23,0);
     748:	60 e0       	ldi	r22, 0x00	; 0
     74a:	87 e1       	ldi	r24, 0x17	; 23
     74c:	0e 94 e2 00 	call	0x1c4	; 0x1c4 <lcd_gotoxy>
		lcd_puts("                  ");
     750:	8d ed       	ldi	r24, 0xDD	; 221
     752:	91 e0       	ldi	r25, 0x01	; 1
     754:	0e 94 f4 00 	call	0x1e8	; 0x1e8 <lcd_puts>
     758:	08 95       	ret
	}
	else if (distance<=380 && distance>370)
     75a:	9c 01       	movw	r18, r24
     75c:	23 57       	subi	r18, 0x73	; 115
     75e:	31 40       	sbci	r19, 0x01	; 1
     760:	2a 30       	cpi	r18, 0x0A	; 10
     762:	31 05       	cpc	r19, r1
     764:	f0 f4       	brcc	.+60     	; 0x7a2 <Load_bar+0x2fe>
	{
		lcd_gotoxy(20,0);
     766:	60 e0       	ldi	r22, 0x00	; 0
     768:	84 e1       	ldi	r24, 0x14	; 20
     76a:	0e 94 e2 00 	call	0x1c4	; 0x1c4 <lcd_gotoxy>
		lcd_putc(5);
     76e:	85 e0       	ldi	r24, 0x05	; 5
     770:	0e 94 f0 00 	call	0x1e0	; 0x1e0 <lcd_putc>
		lcd_gotoxy(21,0);
     774:	60 e0       	ldi	r22, 0x00	; 0
     776:	85 e1       	ldi	r24, 0x15	; 21
     778:	0e 94 e2 00 	call	0x1c4	; 0x1c4 <lcd_gotoxy>
		lcd_putc(5);
     77c:	85 e0       	ldi	r24, 0x05	; 5
     77e:	0e 94 f0 00 	call	0x1e0	; 0x1e0 <lcd_putc>
		lcd_gotoxy(22,0);
     782:	60 e0       	ldi	r22, 0x00	; 0
     784:	86 e1       	ldi	r24, 0x16	; 22
     786:	0e 94 e2 00 	call	0x1c4	; 0x1c4 <lcd_gotoxy>
		lcd_putc(4);
     78a:	84 e0       	ldi	r24, 0x04	; 4
     78c:	0e 94 f0 00 	call	0x1e0	; 0x1e0 <lcd_putc>
		lcd_gotoxy(23,0);
     790:	60 e0       	ldi	r22, 0x00	; 0
     792:	87 e1       	ldi	r24, 0x17	; 23
     794:	0e 94 e2 00 	call	0x1c4	; 0x1c4 <lcd_gotoxy>
		lcd_puts("                  ");
     798:	8d ed       	ldi	r24, 0xDD	; 221
     79a:	91 e0       	ldi	r25, 0x01	; 1
     79c:	0e 94 f4 00 	call	0x1e8	; 0x1e8 <lcd_puts>
     7a0:	08 95       	ret
	}
	else if (distance<=370 && distance>360)
     7a2:	9c 01       	movw	r18, r24
     7a4:	29 56       	subi	r18, 0x69	; 105
     7a6:	31 40       	sbci	r19, 0x01	; 1
     7a8:	2a 30       	cpi	r18, 0x0A	; 10
     7aa:	31 05       	cpc	r19, r1
     7ac:	f0 f4       	brcc	.+60     	; 0x7ea <Load_bar+0x346>
	{
		lcd_gotoxy(20,0);
     7ae:	60 e0       	ldi	r22, 0x00	; 0
     7b0:	84 e1       	ldi	r24, 0x14	; 20
     7b2:	0e 94 e2 00 	call	0x1c4	; 0x1c4 <lcd_gotoxy>
		lcd_putc(5);
     7b6:	85 e0       	ldi	r24, 0x05	; 5
     7b8:	0e 94 f0 00 	call	0x1e0	; 0x1e0 <lcd_putc>
		lcd_gotoxy(21,0);
     7bc:	60 e0       	ldi	r22, 0x00	; 0
     7be:	85 e1       	ldi	r24, 0x15	; 21
     7c0:	0e 94 e2 00 	call	0x1c4	; 0x1c4 <lcd_gotoxy>
		lcd_putc(5);
     7c4:	85 e0       	ldi	r24, 0x05	; 5
     7c6:	0e 94 f0 00 	call	0x1e0	; 0x1e0 <lcd_putc>
		lcd_gotoxy(22,0);
     7ca:	60 e0       	ldi	r22, 0x00	; 0
     7cc:	86 e1       	ldi	r24, 0x16	; 22
     7ce:	0e 94 e2 00 	call	0x1c4	; 0x1c4 <lcd_gotoxy>
		lcd_putc(5);
     7d2:	85 e0       	ldi	r24, 0x05	; 5
     7d4:	0e 94 f0 00 	call	0x1e0	; 0x1e0 <lcd_putc>
		lcd_gotoxy(23,0);
     7d8:	60 e0       	ldi	r22, 0x00	; 0
     7da:	87 e1       	ldi	r24, 0x17	; 23
     7dc:	0e 94 e2 00 	call	0x1c4	; 0x1c4 <lcd_gotoxy>
		lcd_puts("                  ");
     7e0:	8d ed       	ldi	r24, 0xDD	; 221
     7e2:	91 e0       	ldi	r25, 0x01	; 1
     7e4:	0e 94 f4 00 	call	0x1e8	; 0x1e8 <lcd_puts>
     7e8:	08 95       	ret
	}
	else if (distance<=360 && distance>350)
     7ea:	9c 01       	movw	r18, r24
     7ec:	2f 55       	subi	r18, 0x5F	; 95
     7ee:	31 40       	sbci	r19, 0x01	; 1
     7f0:	2a 30       	cpi	r18, 0x0A	; 10
     7f2:	31 05       	cpc	r19, r1
     7f4:	28 f5       	brcc	.+74     	; 0x840 <Load_bar+0x39c>
	{
		lcd_gotoxy(20,0);
     7f6:	60 e0       	ldi	r22, 0x00	; 0
     7f8:	84 e1       	ldi	r24, 0x14	; 20
     7fa:	0e 94 e2 00 	call	0x1c4	; 0x1c4 <lcd_gotoxy>
		lcd_putc(5);
     7fe:	85 e0       	ldi	r24, 0x05	; 5
     800:	0e 94 f0 00 	call	0x1e0	; 0x1e0 <lcd_putc>
		lcd_gotoxy(21,0);
     804:	60 e0       	ldi	r22, 0x00	; 0
     806:	85 e1       	ldi	r24, 0x15	; 21
     808:	0e 94 e2 00 	call	0x1c4	; 0x1c4 <lcd_gotoxy>
		lcd_putc(5);
     80c:	85 e0       	ldi	r24, 0x05	; 5
     80e:	0e 94 f0 00 	call	0x1e0	; 0x1e0 <lcd_putc>
		lcd_gotoxy(22,0);
     812:	60 e0       	ldi	r22, 0x00	; 0
     814:	86 e1       	ldi	r24, 0x16	; 22
     816:	0e 94 e2 00 	call	0x1c4	; 0x1c4 <lcd_gotoxy>
		lcd_putc(5);
     81a:	85 e0       	ldi	r24, 0x05	; 5
     81c:	0e 94 f0 00 	call	0x1e0	; 0x1e0 <lcd_putc>
		lcd_gotoxy(23,0);
     820:	60 e0       	ldi	r22, 0x00	; 0
     822:	87 e1       	ldi	r24, 0x17	; 23
     824:	0e 94 e2 00 	call	0x1c4	; 0x1c4 <lcd_gotoxy>
		lcd_putc(1);
     828:	81 e0       	ldi	r24, 0x01	; 1
     82a:	0e 94 f0 00 	call	0x1e0	; 0x1e0 <lcd_putc>
		lcd_gotoxy(24,0);
     82e:	60 e0       	ldi	r22, 0x00	; 0
     830:	88 e1       	ldi	r24, 0x18	; 24
     832:	0e 94 e2 00 	call	0x1c4	; 0x1c4 <lcd_gotoxy>
		lcd_puts("                 ");
     836:	8e ed       	ldi	r24, 0xDE	; 222
     838:	91 e0       	ldi	r25, 0x01	; 1
     83a:	0e 94 f4 00 	call	0x1e8	; 0x1e8 <lcd_puts>
     83e:	08 95       	ret
	}
	else if (distance<=350 && distance>340)
     840:	9c 01       	movw	r18, r24
     842:	25 55       	subi	r18, 0x55	; 85
     844:	31 40       	sbci	r19, 0x01	; 1
     846:	2a 30       	cpi	r18, 0x0A	; 10
     848:	31 05       	cpc	r19, r1
     84a:	28 f5       	brcc	.+74     	; 0x896 <Load_bar+0x3f2>
	{
		lcd_gotoxy(20,0);
     84c:	60 e0       	ldi	r22, 0x00	; 0
     84e:	84 e1       	ldi	r24, 0x14	; 20
     850:	0e 94 e2 00 	call	0x1c4	; 0x1c4 <lcd_gotoxy>
		lcd_putc(5);
     854:	85 e0       	ldi	r24, 0x05	; 5
     856:	0e 94 f0 00 	call	0x1e0	; 0x1e0 <lcd_putc>
		lcd_gotoxy(21,0);
     85a:	60 e0       	ldi	r22, 0x00	; 0
     85c:	85 e1       	ldi	r24, 0x15	; 21
     85e:	0e 94 e2 00 	call	0x1c4	; 0x1c4 <lcd_gotoxy>
		lcd_putc(5);
     862:	85 e0       	ldi	r24, 0x05	; 5
     864:	0e 94 f0 00 	call	0x1e0	; 0x1e0 <lcd_putc>
		lcd_gotoxy(22,0);
     868:	60 e0       	ldi	r22, 0x00	; 0
     86a:	86 e1       	ldi	r24, 0x16	; 22
     86c:	0e 94 e2 00 	call	0x1c4	; 0x1c4 <lcd_gotoxy>
		lcd_putc(5);
     870:	85 e0       	ldi	r24, 0x05	; 5
     872:	0e 94 f0 00 	call	0x1e0	; 0x1e0 <lcd_putc>
		lcd_gotoxy(23,0);
     876:	60 e0       	ldi	r22, 0x00	; 0
     878:	87 e1       	ldi	r24, 0x17	; 23
     87a:	0e 94 e2 00 	call	0x1c4	; 0x1c4 <lcd_gotoxy>
		lcd_putc(2);
     87e:	82 e0       	ldi	r24, 0x02	; 2
     880:	0e 94 f0 00 	call	0x1e0	; 0x1e0 <lcd_putc>
		lcd_gotoxy(24,0);
     884:	60 e0       	ldi	r22, 0x00	; 0
     886:	88 e1       	ldi	r24, 0x18	; 24
     888:	0e 94 e2 00 	call	0x1c4	; 0x1c4 <lcd_gotoxy>
		lcd_puts("                 ");
     88c:	8e ed       	ldi	r24, 0xDE	; 222
     88e:	91 e0       	ldi	r25, 0x01	; 1
     890:	0e 94 f4 00 	call	0x1e8	; 0x1e8 <lcd_puts>
     894:	08 95       	ret
	}
	else if (distance<=340 && distance>330)
     896:	9c 01       	movw	r18, r24
     898:	2b 54       	subi	r18, 0x4B	; 75
     89a:	31 40       	sbci	r19, 0x01	; 1
     89c:	2a 30       	cpi	r18, 0x0A	; 10
     89e:	31 05       	cpc	r19, r1
     8a0:	28 f5       	brcc	.+74     	; 0x8ec <Load_bar+0x448>
	{
		lcd_gotoxy(20,0);
     8a2:	60 e0       	ldi	r22, 0x00	; 0
     8a4:	84 e1       	ldi	r24, 0x14	; 20
     8a6:	0e 94 e2 00 	call	0x1c4	; 0x1c4 <lcd_gotoxy>
		lcd_putc(5);
     8aa:	85 e0       	ldi	r24, 0x05	; 5
     8ac:	0e 94 f0 00 	call	0x1e0	; 0x1e0 <lcd_putc>
		lcd_gotoxy(21,0);
     8b0:	60 e0       	ldi	r22, 0x00	; 0
     8b2:	85 e1       	ldi	r24, 0x15	; 21
     8b4:	0e 94 e2 00 	call	0x1c4	; 0x1c4 <lcd_gotoxy>
		lcd_putc(5);
     8b8:	85 e0       	ldi	r24, 0x05	; 5
     8ba:	0e 94 f0 00 	call	0x1e0	; 0x1e0 <lcd_putc>
		lcd_gotoxy(22,0);
     8be:	60 e0       	ldi	r22, 0x00	; 0
     8c0:	86 e1       	ldi	r24, 0x16	; 22
     8c2:	0e 94 e2 00 	call	0x1c4	; 0x1c4 <lcd_gotoxy>
		lcd_putc(5);
     8c6:	85 e0       	ldi	r24, 0x05	; 5
     8c8:	0e 94 f0 00 	call	0x1e0	; 0x1e0 <lcd_putc>
		lcd_gotoxy(23,0);
     8cc:	60 e0       	ldi	r22, 0x00	; 0
     8ce:	87 e1       	ldi	r24, 0x17	; 23
     8d0:	0e 94 e2 00 	call	0x1c4	; 0x1c4 <lcd_gotoxy>
		lcd_putc(3);
     8d4:	83 e0       	ldi	r24, 0x03	; 3
     8d6:	0e 94 f0 00 	call	0x1e0	; 0x1e0 <lcd_putc>
		lcd_gotoxy(24,0);
     8da:	60 e0       	ldi	r22, 0x00	; 0
     8dc:	88 e1       	ldi	r24, 0x18	; 24
     8de:	0e 94 e2 00 	call	0x1c4	; 0x1c4 <lcd_gotoxy>
		lcd_puts("                 ");
     8e2:	8e ed       	ldi	r24, 0xDE	; 222
     8e4:	91 e0       	ldi	r25, 0x01	; 1
     8e6:	0e 94 f4 00 	call	0x1e8	; 0x1e8 <lcd_puts>
     8ea:	08 95       	ret
	}
	else if (distance<=330 && distance>320)
     8ec:	9c 01       	movw	r18, r24
     8ee:	21 54       	subi	r18, 0x41	; 65
     8f0:	31 40       	sbci	r19, 0x01	; 1
     8f2:	2a 30       	cpi	r18, 0x0A	; 10
     8f4:	31 05       	cpc	r19, r1
     8f6:	28 f5       	brcc	.+74     	; 0x942 <__stack+0x43>
	{
		lcd_gotoxy(20,0);
     8f8:	60 e0       	ldi	r22, 0x00	; 0
     8fa:	84 e1       	ldi	r24, 0x14	; 20
     8fc:	0e 94 e2 00 	call	0x1c4	; 0x1c4 <lcd_gotoxy>
		lcd_putc(5);
     900:	85 e0       	ldi	r24, 0x05	; 5
     902:	0e 94 f0 00 	call	0x1e0	; 0x1e0 <lcd_putc>
		lcd_gotoxy(21,0);
     906:	60 e0       	ldi	r22, 0x00	; 0
     908:	85 e1       	ldi	r24, 0x15	; 21
     90a:	0e 94 e2 00 	call	0x1c4	; 0x1c4 <lcd_gotoxy>
		lcd_putc(5);
     90e:	85 e0       	ldi	r24, 0x05	; 5
     910:	0e 94 f0 00 	call	0x1e0	; 0x1e0 <lcd_putc>
		lcd_gotoxy(22,0);
     914:	60 e0       	ldi	r22, 0x00	; 0
     916:	86 e1       	ldi	r24, 0x16	; 22
     918:	0e 94 e2 00 	call	0x1c4	; 0x1c4 <lcd_gotoxy>
		lcd_putc(5);
     91c:	85 e0       	ldi	r24, 0x05	; 5
     91e:	0e 94 f0 00 	call	0x1e0	; 0x1e0 <lcd_putc>
		lcd_gotoxy(23,0);
     922:	60 e0       	ldi	r22, 0x00	; 0
     924:	87 e1       	ldi	r24, 0x17	; 23
     926:	0e 94 e2 00 	call	0x1c4	; 0x1c4 <lcd_gotoxy>
		lcd_putc(4);
     92a:	84 e0       	ldi	r24, 0x04	; 4
     92c:	0e 94 f0 00 	call	0x1e0	; 0x1e0 <lcd_putc>
		lcd_gotoxy(24,0);
     930:	60 e0       	ldi	r22, 0x00	; 0
     932:	88 e1       	ldi	r24, 0x18	; 24
     934:	0e 94 e2 00 	call	0x1c4	; 0x1c4 <lcd_gotoxy>
		lcd_puts("                 ");
     938:	8e ed       	ldi	r24, 0xDE	; 222
     93a:	91 e0       	ldi	r25, 0x01	; 1
     93c:	0e 94 f4 00 	call	0x1e8	; 0x1e8 <lcd_puts>
     940:	08 95       	ret
	}
	else if (distance<=320 && distance>310)
     942:	9c 01       	movw	r18, r24
     944:	27 53       	subi	r18, 0x37	; 55
     946:	31 40       	sbci	r19, 0x01	; 1
     948:	2a 30       	cpi	r18, 0x0A	; 10
     94a:	31 05       	cpc	r19, r1
     94c:	28 f5       	brcc	.+74     	; 0x998 <__stack+0x99>
	{
		lcd_gotoxy(20,0);
     94e:	60 e0       	ldi	r22, 0x00	; 0
     950:	84 e1       	ldi	r24, 0x14	; 20
     952:	0e 94 e2 00 	call	0x1c4	; 0x1c4 <lcd_gotoxy>
		lcd_putc(5);
     956:	85 e0       	ldi	r24, 0x05	; 5
     958:	0e 94 f0 00 	call	0x1e0	; 0x1e0 <lcd_putc>
		lcd_gotoxy(21,0);
     95c:	60 e0       	ldi	r22, 0x00	; 0
     95e:	85 e1       	ldi	r24, 0x15	; 21
     960:	0e 94 e2 00 	call	0x1c4	; 0x1c4 <lcd_gotoxy>
		lcd_putc(5);
     964:	85 e0       	ldi	r24, 0x05	; 5
     966:	0e 94 f0 00 	call	0x1e0	; 0x1e0 <lcd_putc>
		lcd_gotoxy(22,0);
     96a:	60 e0       	ldi	r22, 0x00	; 0
     96c:	86 e1       	ldi	r24, 0x16	; 22
     96e:	0e 94 e2 00 	call	0x1c4	; 0x1c4 <lcd_gotoxy>
		lcd_putc(5);
     972:	85 e0       	ldi	r24, 0x05	; 5
     974:	0e 94 f0 00 	call	0x1e0	; 0x1e0 <lcd_putc>
		lcd_gotoxy(23,0);
     978:	60 e0       	ldi	r22, 0x00	; 0
     97a:	87 e1       	ldi	r24, 0x17	; 23
     97c:	0e 94 e2 00 	call	0x1c4	; 0x1c4 <lcd_gotoxy>
		lcd_putc(5);
     980:	85 e0       	ldi	r24, 0x05	; 5
     982:	0e 94 f0 00 	call	0x1e0	; 0x1e0 <lcd_putc>
		lcd_gotoxy(24,0);
     986:	60 e0       	ldi	r22, 0x00	; 0
     988:	88 e1       	ldi	r24, 0x18	; 24
     98a:	0e 94 e2 00 	call	0x1c4	; 0x1c4 <lcd_gotoxy>
		lcd_puts("                 ");
     98e:	8e ed       	ldi	r24, 0xDE	; 222
     990:	91 e0       	ldi	r25, 0x01	; 1
     992:	0e 94 f4 00 	call	0x1e8	; 0x1e8 <lcd_puts>
     996:	08 95       	ret
	}
	else if (distance<=310 && distance>300)
     998:	9c 01       	movw	r18, r24
     99a:	2d 52       	subi	r18, 0x2D	; 45
     99c:	31 40       	sbci	r19, 0x01	; 1
     99e:	2a 30       	cpi	r18, 0x0A	; 10
     9a0:	31 05       	cpc	r19, r1
     9a2:	60 f5       	brcc	.+88     	; 0x9fc <__stack+0xfd>
	{
		lcd_gotoxy(20,0);
     9a4:	60 e0       	ldi	r22, 0x00	; 0
     9a6:	84 e1       	ldi	r24, 0x14	; 20
     9a8:	0e 94 e2 00 	call	0x1c4	; 0x1c4 <lcd_gotoxy>
		lcd_putc(5);
     9ac:	85 e0       	ldi	r24, 0x05	; 5
     9ae:	0e 94 f0 00 	call	0x1e0	; 0x1e0 <lcd_putc>
		lcd_gotoxy(21,0);
     9b2:	60 e0       	ldi	r22, 0x00	; 0
     9b4:	85 e1       	ldi	r24, 0x15	; 21
     9b6:	0e 94 e2 00 	call	0x1c4	; 0x1c4 <lcd_gotoxy>
		lcd_putc(5);
     9ba:	85 e0       	ldi	r24, 0x05	; 5
     9bc:	0e 94 f0 00 	call	0x1e0	; 0x1e0 <lcd_putc>
		lcd_gotoxy(22,0);
     9c0:	60 e0       	ldi	r22, 0x00	; 0
     9c2:	86 e1       	ldi	r24, 0x16	; 22
     9c4:	0e 94 e2 00 	call	0x1c4	; 0x1c4 <lcd_gotoxy>
		lcd_putc(5);
     9c8:	85 e0       	ldi	r24, 0x05	; 5
     9ca:	0e 94 f0 00 	call	0x1e0	; 0x1e0 <lcd_putc>
		lcd_gotoxy(23,0);
     9ce:	60 e0       	ldi	r22, 0x00	; 0
     9d0:	87 e1       	ldi	r24, 0x17	; 23
     9d2:	0e 94 e2 00 	call	0x1c4	; 0x1c4 <lcd_gotoxy>
		lcd_putc(5);
     9d6:	85 e0       	ldi	r24, 0x05	; 5
     9d8:	0e 94 f0 00 	call	0x1e0	; 0x1e0 <lcd_putc>
		lcd_gotoxy(24,0);
     9dc:	60 e0       	ldi	r22, 0x00	; 0
     9de:	88 e1       	ldi	r24, 0x18	; 24
     9e0:	0e 94 e2 00 	call	0x1c4	; 0x1c4 <lcd_gotoxy>
		lcd_putc(1);
     9e4:	81 e0       	ldi	r24, 0x01	; 1
     9e6:	0e 94 f0 00 	call	0x1e0	; 0x1e0 <lcd_putc>
		lcd_gotoxy(25,0);
     9ea:	60 e0       	ldi	r22, 0x00	; 0
     9ec:	89 e1       	ldi	r24, 0x19	; 25
     9ee:	0e 94 e2 00 	call	0x1c4	; 0x1c4 <lcd_gotoxy>
		lcd_puts("                ");
     9f2:	8f ed       	ldi	r24, 0xDF	; 223
     9f4:	91 e0       	ldi	r25, 0x01	; 1
     9f6:	0e 94 f4 00 	call	0x1e8	; 0x1e8 <lcd_puts>
     9fa:	08 95       	ret
	}
	else if (distance<=300 && distance>290)
     9fc:	9c 01       	movw	r18, r24
     9fe:	23 52       	subi	r18, 0x23	; 35
     a00:	31 40       	sbci	r19, 0x01	; 1
     a02:	2a 30       	cpi	r18, 0x0A	; 10
     a04:	31 05       	cpc	r19, r1
     a06:	60 f5       	brcc	.+88     	; 0xa60 <__stack+0x161>
	{
		lcd_gotoxy(20,0);
     a08:	60 e0       	ldi	r22, 0x00	; 0
     a0a:	84 e1       	ldi	r24, 0x14	; 20
     a0c:	0e 94 e2 00 	call	0x1c4	; 0x1c4 <lcd_gotoxy>
		lcd_putc(5);
     a10:	85 e0       	ldi	r24, 0x05	; 5
     a12:	0e 94 f0 00 	call	0x1e0	; 0x1e0 <lcd_putc>
		lcd_gotoxy(21,0);
     a16:	60 e0       	ldi	r22, 0x00	; 0
     a18:	85 e1       	ldi	r24, 0x15	; 21
     a1a:	0e 94 e2 00 	call	0x1c4	; 0x1c4 <lcd_gotoxy>
		lcd_putc(5);
     a1e:	85 e0       	ldi	r24, 0x05	; 5
     a20:	0e 94 f0 00 	call	0x1e0	; 0x1e0 <lcd_putc>
		lcd_gotoxy(22,0);
     a24:	60 e0       	ldi	r22, 0x00	; 0
     a26:	86 e1       	ldi	r24, 0x16	; 22
     a28:	0e 94 e2 00 	call	0x1c4	; 0x1c4 <lcd_gotoxy>
		lcd_putc(5);
     a2c:	85 e0       	ldi	r24, 0x05	; 5
     a2e:	0e 94 f0 00 	call	0x1e0	; 0x1e0 <lcd_putc>
		lcd_gotoxy(23,0);
     a32:	60 e0       	ldi	r22, 0x00	; 0
     a34:	87 e1       	ldi	r24, 0x17	; 23
     a36:	0e 94 e2 00 	call	0x1c4	; 0x1c4 <lcd_gotoxy>
		lcd_putc(5);
     a3a:	85 e0       	ldi	r24, 0x05	; 5
     a3c:	0e 94 f0 00 	call	0x1e0	; 0x1e0 <lcd_putc>
		lcd_gotoxy(24,0);
     a40:	60 e0       	ldi	r22, 0x00	; 0
     a42:	88 e1       	ldi	r24, 0x18	; 24
     a44:	0e 94 e2 00 	call	0x1c4	; 0x1c4 <lcd_gotoxy>
		lcd_putc(2);
     a48:	82 e0       	ldi	r24, 0x02	; 2
     a4a:	0e 94 f0 00 	call	0x1e0	; 0x1e0 <lcd_putc>
		lcd_gotoxy(25,0);
     a4e:	60 e0       	ldi	r22, 0x00	; 0
     a50:	89 e1       	ldi	r24, 0x19	; 25
     a52:	0e 94 e2 00 	call	0x1c4	; 0x1c4 <lcd_gotoxy>
		lcd_puts("                ");
     a56:	8f ed       	ldi	r24, 0xDF	; 223
     a58:	91 e0       	ldi	r25, 0x01	; 1
     a5a:	0e 94 f4 00 	call	0x1e8	; 0x1e8 <lcd_puts>
     a5e:	08 95       	ret
	}
	else if (distance<=290 && distance>280)
     a60:	9c 01       	movw	r18, r24
     a62:	29 51       	subi	r18, 0x19	; 25
     a64:	31 40       	sbci	r19, 0x01	; 1
     a66:	2a 30       	cpi	r18, 0x0A	; 10
     a68:	31 05       	cpc	r19, r1
     a6a:	60 f5       	brcc	.+88     	; 0xac4 <__stack+0x1c5>
	{
		lcd_gotoxy(20,0);
     a6c:	60 e0       	ldi	r22, 0x00	; 0
     a6e:	84 e1       	ldi	r24, 0x14	; 20
     a70:	0e 94 e2 00 	call	0x1c4	; 0x1c4 <lcd_gotoxy>
		lcd_putc(5);
     a74:	85 e0       	ldi	r24, 0x05	; 5
     a76:	0e 94 f0 00 	call	0x1e0	; 0x1e0 <lcd_putc>
		lcd_gotoxy(21,0);
     a7a:	60 e0       	ldi	r22, 0x00	; 0
     a7c:	85 e1       	ldi	r24, 0x15	; 21
     a7e:	0e 94 e2 00 	call	0x1c4	; 0x1c4 <lcd_gotoxy>
		lcd_putc(5);
     a82:	85 e0       	ldi	r24, 0x05	; 5
     a84:	0e 94 f0 00 	call	0x1e0	; 0x1e0 <lcd_putc>
		lcd_gotoxy(22,0);
     a88:	60 e0       	ldi	r22, 0x00	; 0
     a8a:	86 e1       	ldi	r24, 0x16	; 22
     a8c:	0e 94 e2 00 	call	0x1c4	; 0x1c4 <lcd_gotoxy>
		lcd_putc(5);
     a90:	85 e0       	ldi	r24, 0x05	; 5
     a92:	0e 94 f0 00 	call	0x1e0	; 0x1e0 <lcd_putc>
		lcd_gotoxy(23,0);
     a96:	60 e0       	ldi	r22, 0x00	; 0
     a98:	87 e1       	ldi	r24, 0x17	; 23
     a9a:	0e 94 e2 00 	call	0x1c4	; 0x1c4 <lcd_gotoxy>
		lcd_putc(5);
     a9e:	85 e0       	ldi	r24, 0x05	; 5
     aa0:	0e 94 f0 00 	call	0x1e0	; 0x1e0 <lcd_putc>
		lcd_gotoxy(24,0);
     aa4:	60 e0       	ldi	r22, 0x00	; 0
     aa6:	88 e1       	ldi	r24, 0x18	; 24
     aa8:	0e 94 e2 00 	call	0x1c4	; 0x1c4 <lcd_gotoxy>
		lcd_putc(3);
     aac:	83 e0       	ldi	r24, 0x03	; 3
     aae:	0e 94 f0 00 	call	0x1e0	; 0x1e0 <lcd_putc>
		lcd_gotoxy(25,0);
     ab2:	60 e0       	ldi	r22, 0x00	; 0
     ab4:	89 e1       	ldi	r24, 0x19	; 25
     ab6:	0e 94 e2 00 	call	0x1c4	; 0x1c4 <lcd_gotoxy>
		lcd_puts("                ");
     aba:	8f ed       	ldi	r24, 0xDF	; 223
     abc:	91 e0       	ldi	r25, 0x01	; 1
     abe:	0e 94 f4 00 	call	0x1e8	; 0x1e8 <lcd_puts>
     ac2:	08 95       	ret
	}
	else if (distance<=280 && distance>270)
     ac4:	9c 01       	movw	r18, r24
     ac6:	2f 50       	subi	r18, 0x0F	; 15
     ac8:	31 40       	sbci	r19, 0x01	; 1
     aca:	2a 30       	cpi	r18, 0x0A	; 10
     acc:	31 05       	cpc	r19, r1
     ace:	60 f5       	brcc	.+88     	; 0xb28 <__stack+0x229>
	{
		lcd_gotoxy(20,0);
     ad0:	60 e0       	ldi	r22, 0x00	; 0
     ad2:	84 e1       	ldi	r24, 0x14	; 20
     ad4:	0e 94 e2 00 	call	0x1c4	; 0x1c4 <lcd_gotoxy>
		lcd_putc(5);
     ad8:	85 e0       	ldi	r24, 0x05	; 5
     ada:	0e 94 f0 00 	call	0x1e0	; 0x1e0 <lcd_putc>
		lcd_gotoxy(21,0);
     ade:	60 e0       	ldi	r22, 0x00	; 0
     ae0:	85 e1       	ldi	r24, 0x15	; 21
     ae2:	0e 94 e2 00 	call	0x1c4	; 0x1c4 <lcd_gotoxy>
		lcd_putc(5);
     ae6:	85 e0       	ldi	r24, 0x05	; 5
     ae8:	0e 94 f0 00 	call	0x1e0	; 0x1e0 <lcd_putc>
		lcd_gotoxy(22,0);
     aec:	60 e0       	ldi	r22, 0x00	; 0
     aee:	86 e1       	ldi	r24, 0x16	; 22
     af0:	0e 94 e2 00 	call	0x1c4	; 0x1c4 <lcd_gotoxy>
		lcd_putc(5);
     af4:	85 e0       	ldi	r24, 0x05	; 5
     af6:	0e 94 f0 00 	call	0x1e0	; 0x1e0 <lcd_putc>
		lcd_gotoxy(23,0);
     afa:	60 e0       	ldi	r22, 0x00	; 0
     afc:	87 e1       	ldi	r24, 0x17	; 23
     afe:	0e 94 e2 00 	call	0x1c4	; 0x1c4 <lcd_gotoxy>
		lcd_putc(5);
     b02:	85 e0       	ldi	r24, 0x05	; 5
     b04:	0e 94 f0 00 	call	0x1e0	; 0x1e0 <lcd_putc>
		lcd_gotoxy(24,0);
     b08:	60 e0       	ldi	r22, 0x00	; 0
     b0a:	88 e1       	ldi	r24, 0x18	; 24
     b0c:	0e 94 e2 00 	call	0x1c4	; 0x1c4 <lcd_gotoxy>
		lcd_putc(4);
     b10:	84 e0       	ldi	r24, 0x04	; 4
     b12:	0e 94 f0 00 	call	0x1e0	; 0x1e0 <lcd_putc>
		lcd_gotoxy(25,0);
     b16:	60 e0       	ldi	r22, 0x00	; 0
     b18:	89 e1       	ldi	r24, 0x19	; 25
     b1a:	0e 94 e2 00 	call	0x1c4	; 0x1c4 <lcd_gotoxy>
		lcd_puts("                ");
     b1e:	8f ed       	ldi	r24, 0xDF	; 223
     b20:	91 e0       	ldi	r25, 0x01	; 1
     b22:	0e 94 f4 00 	call	0x1e8	; 0x1e8 <lcd_puts>
     b26:	08 95       	ret
	}
	else if (distance<=270 && distance>260)
     b28:	9c 01       	movw	r18, r24
     b2a:	25 50       	subi	r18, 0x05	; 5
     b2c:	31 40       	sbci	r19, 0x01	; 1
     b2e:	2a 30       	cpi	r18, 0x0A	; 10
     b30:	31 05       	cpc	r19, r1
     b32:	60 f5       	brcc	.+88     	; 0xb8c <__stack+0x28d>
	{
		lcd_gotoxy(20,0);
     b34:	60 e0       	ldi	r22, 0x00	; 0
     b36:	84 e1       	ldi	r24, 0x14	; 20
     b38:	0e 94 e2 00 	call	0x1c4	; 0x1c4 <lcd_gotoxy>
		lcd_putc(5);
     b3c:	85 e0       	ldi	r24, 0x05	; 5
     b3e:	0e 94 f0 00 	call	0x1e0	; 0x1e0 <lcd_putc>
		lcd_gotoxy(21,0);
     b42:	60 e0       	ldi	r22, 0x00	; 0
     b44:	85 e1       	ldi	r24, 0x15	; 21
     b46:	0e 94 e2 00 	call	0x1c4	; 0x1c4 <lcd_gotoxy>
		lcd_putc(5);
     b4a:	85 e0       	ldi	r24, 0x05	; 5
     b4c:	0e 94 f0 00 	call	0x1e0	; 0x1e0 <lcd_putc>
		lcd_gotoxy(22,0);
     b50:	60 e0       	ldi	r22, 0x00	; 0
     b52:	86 e1       	ldi	r24, 0x16	; 22
     b54:	0e 94 e2 00 	call	0x1c4	; 0x1c4 <lcd_gotoxy>
		lcd_putc(5);
     b58:	85 e0       	ldi	r24, 0x05	; 5
     b5a:	0e 94 f0 00 	call	0x1e0	; 0x1e0 <lcd_putc>
		lcd_gotoxy(23,0);
     b5e:	60 e0       	ldi	r22, 0x00	; 0
     b60:	87 e1       	ldi	r24, 0x17	; 23
     b62:	0e 94 e2 00 	call	0x1c4	; 0x1c4 <lcd_gotoxy>
		lcd_putc(5);
     b66:	85 e0       	ldi	r24, 0x05	; 5
     b68:	0e 94 f0 00 	call	0x1e0	; 0x1e0 <lcd_putc>
		lcd_gotoxy(24,0);
     b6c:	60 e0       	ldi	r22, 0x00	; 0
     b6e:	88 e1       	ldi	r24, 0x18	; 24
     b70:	0e 94 e2 00 	call	0x1c4	; 0x1c4 <lcd_gotoxy>
		lcd_putc(5);
     b74:	85 e0       	ldi	r24, 0x05	; 5
     b76:	0e 94 f0 00 	call	0x1e0	; 0x1e0 <lcd_putc>
		lcd_gotoxy(25,0);
     b7a:	60 e0       	ldi	r22, 0x00	; 0
     b7c:	89 e1       	ldi	r24, 0x19	; 25
     b7e:	0e 94 e2 00 	call	0x1c4	; 0x1c4 <lcd_gotoxy>
		lcd_puts("                ");
     b82:	8f ed       	ldi	r24, 0xDF	; 223
     b84:	91 e0       	ldi	r25, 0x01	; 1
     b86:	0e 94 f4 00 	call	0x1e8	; 0x1e8 <lcd_puts>
     b8a:	08 95       	ret
	}
	else if (distance<=260 && distance>250)
     b8c:	9c 01       	movw	r18, r24
     b8e:	2b 5f       	subi	r18, 0xFB	; 251
     b90:	31 09       	sbc	r19, r1
     b92:	2a 30       	cpi	r18, 0x0A	; 10
     b94:	31 05       	cpc	r19, r1
     b96:	98 f5       	brcc	.+102    	; 0xbfe <__stack+0x2ff>
	{
		lcd_gotoxy(20,0);
     b98:	60 e0       	ldi	r22, 0x00	; 0
     b9a:	84 e1       	ldi	r24, 0x14	; 20
     b9c:	0e 94 e2 00 	call	0x1c4	; 0x1c4 <lcd_gotoxy>
		lcd_putc(5);
     ba0:	85 e0       	ldi	r24, 0x05	; 5
     ba2:	0e 94 f0 00 	call	0x1e0	; 0x1e0 <lcd_putc>
		lcd_gotoxy(21,0);
     ba6:	60 e0       	ldi	r22, 0x00	; 0
     ba8:	85 e1       	ldi	r24, 0x15	; 21
     baa:	0e 94 e2 00 	call	0x1c4	; 0x1c4 <lcd_gotoxy>
		lcd_putc(5);
     bae:	85 e0       	ldi	r24, 0x05	; 5
     bb0:	0e 94 f0 00 	call	0x1e0	; 0x1e0 <lcd_putc>
		lcd_gotoxy(22,0);
     bb4:	60 e0       	ldi	r22, 0x00	; 0
     bb6:	86 e1       	ldi	r24, 0x16	; 22
     bb8:	0e 94 e2 00 	call	0x1c4	; 0x1c4 <lcd_gotoxy>
		lcd_putc(5);
     bbc:	85 e0       	ldi	r24, 0x05	; 5
     bbe:	0e 94 f0 00 	call	0x1e0	; 0x1e0 <lcd_putc>
		lcd_gotoxy(23,0);
     bc2:	60 e0       	ldi	r22, 0x00	; 0
     bc4:	87 e1       	ldi	r24, 0x17	; 23
     bc6:	0e 94 e2 00 	call	0x1c4	; 0x1c4 <lcd_gotoxy>
		lcd_putc(5);
     bca:	85 e0       	ldi	r24, 0x05	; 5
     bcc:	0e 94 f0 00 	call	0x1e0	; 0x1e0 <lcd_putc>
		lcd_gotoxy(24,0);
     bd0:	60 e0       	ldi	r22, 0x00	; 0
     bd2:	88 e1       	ldi	r24, 0x18	; 24
     bd4:	0e 94 e2 00 	call	0x1c4	; 0x1c4 <lcd_gotoxy>
		lcd_putc(5);
     bd8:	85 e0       	ldi	r24, 0x05	; 5
     bda:	0e 94 f0 00 	call	0x1e0	; 0x1e0 <lcd_putc>
		lcd_gotoxy(25,0);
     bde:	60 e0       	ldi	r22, 0x00	; 0
     be0:	89 e1       	ldi	r24, 0x19	; 25
     be2:	0e 94 e2 00 	call	0x1c4	; 0x1c4 <lcd_gotoxy>
		lcd_putc(1);
     be6:	81 e0       	ldi	r24, 0x01	; 1
     be8:	0e 94 f0 00 	call	0x1e0	; 0x1e0 <lcd_putc>
		lcd_gotoxy(26,0);
     bec:	60 e0       	ldi	r22, 0x00	; 0
     bee:	8a e1       	ldi	r24, 0x1A	; 26
     bf0:	0e 94 e2 00 	call	0x1c4	; 0x1c4 <lcd_gotoxy>
		lcd_puts("               ");
     bf4:	80 ee       	ldi	r24, 0xE0	; 224
     bf6:	91 e0       	ldi	r25, 0x01	; 1
     bf8:	0e 94 f4 00 	call	0x1e8	; 0x1e8 <lcd_puts>
     bfc:	08 95       	ret
	}
	else if (distance<=250 && distance>240)
     bfe:	9c 01       	movw	r18, r24
     c00:	21 5f       	subi	r18, 0xF1	; 241
     c02:	31 09       	sbc	r19, r1
     c04:	2a 30       	cpi	r18, 0x0A	; 10
     c06:	31 05       	cpc	r19, r1
     c08:	98 f5       	brcc	.+102    	; 0xc70 <__stack+0x371>
	{
		lcd_gotoxy(20,0);
     c0a:	60 e0       	ldi	r22, 0x00	; 0
     c0c:	84 e1       	ldi	r24, 0x14	; 20
     c0e:	0e 94 e2 00 	call	0x1c4	; 0x1c4 <lcd_gotoxy>
		lcd_putc(5);
     c12:	85 e0       	ldi	r24, 0x05	; 5
     c14:	0e 94 f0 00 	call	0x1e0	; 0x1e0 <lcd_putc>
		lcd_gotoxy(21,0);
     c18:	60 e0       	ldi	r22, 0x00	; 0
     c1a:	85 e1       	ldi	r24, 0x15	; 21
     c1c:	0e 94 e2 00 	call	0x1c4	; 0x1c4 <lcd_gotoxy>
		lcd_putc(5);
     c20:	85 e0       	ldi	r24, 0x05	; 5
     c22:	0e 94 f0 00 	call	0x1e0	; 0x1e0 <lcd_putc>
		lcd_gotoxy(22,0);
     c26:	60 e0       	ldi	r22, 0x00	; 0
     c28:	86 e1       	ldi	r24, 0x16	; 22
     c2a:	0e 94 e2 00 	call	0x1c4	; 0x1c4 <lcd_gotoxy>
		lcd_putc(5);
     c2e:	85 e0       	ldi	r24, 0x05	; 5
     c30:	0e 94 f0 00 	call	0x1e0	; 0x1e0 <lcd_putc>
		lcd_gotoxy(23,0);
     c34:	60 e0       	ldi	r22, 0x00	; 0
     c36:	87 e1       	ldi	r24, 0x17	; 23
     c38:	0e 94 e2 00 	call	0x1c4	; 0x1c4 <lcd_gotoxy>
		lcd_putc(5);
     c3c:	85 e0       	ldi	r24, 0x05	; 5
     c3e:	0e 94 f0 00 	call	0x1e0	; 0x1e0 <lcd_putc>
		lcd_gotoxy(24,0);
     c42:	60 e0       	ldi	r22, 0x00	; 0
     c44:	88 e1       	ldi	r24, 0x18	; 24
     c46:	0e 94 e2 00 	call	0x1c4	; 0x1c4 <lcd_gotoxy>
		lcd_putc(5);
     c4a:	85 e0       	ldi	r24, 0x05	; 5
     c4c:	0e 94 f0 00 	call	0x1e0	; 0x1e0 <lcd_putc>
		lcd_gotoxy(25,0);
     c50:	60 e0       	ldi	r22, 0x00	; 0
     c52:	89 e1       	ldi	r24, 0x19	; 25
     c54:	0e 94 e2 00 	call	0x1c4	; 0x1c4 <lcd_gotoxy>
		lcd_putc(2);
     c58:	82 e0       	ldi	r24, 0x02	; 2
     c5a:	0e 94 f0 00 	call	0x1e0	; 0x1e0 <lcd_putc>
		lcd_gotoxy(26,0);
     c5e:	60 e0       	ldi	r22, 0x00	; 0
     c60:	8a e1       	ldi	r24, 0x1A	; 26
     c62:	0e 94 e2 00 	call	0x1c4	; 0x1c4 <lcd_gotoxy>
		lcd_puts("               ");
     c66:	80 ee       	ldi	r24, 0xE0	; 224
     c68:	91 e0       	ldi	r25, 0x01	; 1
     c6a:	0e 94 f4 00 	call	0x1e8	; 0x1e8 <lcd_puts>
     c6e:	08 95       	ret
	}
	else if (distance<=240 && distance>230)
     c70:	9c 01       	movw	r18, r24
     c72:	27 5e       	subi	r18, 0xE7	; 231
     c74:	31 09       	sbc	r19, r1
     c76:	2a 30       	cpi	r18, 0x0A	; 10
     c78:	31 05       	cpc	r19, r1
     c7a:	98 f5       	brcc	.+102    	; 0xce2 <__stack+0x3e3>
	{
		lcd_gotoxy(20,0);
     c7c:	60 e0       	ldi	r22, 0x00	; 0
     c7e:	84 e1       	ldi	r24, 0x14	; 20
     c80:	0e 94 e2 00 	call	0x1c4	; 0x1c4 <lcd_gotoxy>
		lcd_putc(5);
     c84:	85 e0       	ldi	r24, 0x05	; 5
     c86:	0e 94 f0 00 	call	0x1e0	; 0x1e0 <lcd_putc>
		lcd_gotoxy(21,0);
     c8a:	60 e0       	ldi	r22, 0x00	; 0
     c8c:	85 e1       	ldi	r24, 0x15	; 21
     c8e:	0e 94 e2 00 	call	0x1c4	; 0x1c4 <lcd_gotoxy>
		lcd_putc(5);
     c92:	85 e0       	ldi	r24, 0x05	; 5
     c94:	0e 94 f0 00 	call	0x1e0	; 0x1e0 <lcd_putc>
		lcd_gotoxy(22,0);
     c98:	60 e0       	ldi	r22, 0x00	; 0
     c9a:	86 e1       	ldi	r24, 0x16	; 22
     c9c:	0e 94 e2 00 	call	0x1c4	; 0x1c4 <lcd_gotoxy>
		lcd_putc(5);
     ca0:	85 e0       	ldi	r24, 0x05	; 5
     ca2:	0e 94 f0 00 	call	0x1e0	; 0x1e0 <lcd_putc>
		lcd_gotoxy(23,0);
     ca6:	60 e0       	ldi	r22, 0x00	; 0
     ca8:	87 e1       	ldi	r24, 0x17	; 23
     caa:	0e 94 e2 00 	call	0x1c4	; 0x1c4 <lcd_gotoxy>
		lcd_putc(5);
     cae:	85 e0       	ldi	r24, 0x05	; 5
     cb0:	0e 94 f0 00 	call	0x1e0	; 0x1e0 <lcd_putc>
		lcd_gotoxy(24,0);
     cb4:	60 e0       	ldi	r22, 0x00	; 0
     cb6:	88 e1       	ldi	r24, 0x18	; 24
     cb8:	0e 94 e2 00 	call	0x1c4	; 0x1c4 <lcd_gotoxy>
		lcd_putc(5);
     cbc:	85 e0       	ldi	r24, 0x05	; 5
     cbe:	0e 94 f0 00 	call	0x1e0	; 0x1e0 <lcd_putc>
		lcd_gotoxy(25,0);
     cc2:	60 e0       	ldi	r22, 0x00	; 0
     cc4:	89 e1       	ldi	r24, 0x19	; 25
     cc6:	0e 94 e2 00 	call	0x1c4	; 0x1c4 <lcd_gotoxy>
		lcd_putc(3);
     cca:	83 e0       	ldi	r24, 0x03	; 3
     ccc:	0e 94 f0 00 	call	0x1e0	; 0x1e0 <lcd_putc>
		lcd_gotoxy(26,0);
     cd0:	60 e0       	ldi	r22, 0x00	; 0
     cd2:	8a e1       	ldi	r24, 0x1A	; 26
     cd4:	0e 94 e2 00 	call	0x1c4	; 0x1c4 <lcd_gotoxy>
		lcd_puts("               ");
     cd8:	80 ee       	ldi	r24, 0xE0	; 224
     cda:	91 e0       	ldi	r25, 0x01	; 1
     cdc:	0e 94 f4 00 	call	0x1e8	; 0x1e8 <lcd_puts>
     ce0:	08 95       	ret
	}
	else if (distance<=230 && distance>220)
     ce2:	9c 01       	movw	r18, r24
     ce4:	2d 5d       	subi	r18, 0xDD	; 221
     ce6:	31 09       	sbc	r19, r1
     ce8:	2a 30       	cpi	r18, 0x0A	; 10
     cea:	31 05       	cpc	r19, r1
     cec:	98 f5       	brcc	.+102    	; 0xd54 <__stack+0x455>
	{
		lcd_gotoxy(20,0);
     cee:	60 e0       	ldi	r22, 0x00	; 0
     cf0:	84 e1       	ldi	r24, 0x14	; 20
     cf2:	0e 94 e2 00 	call	0x1c4	; 0x1c4 <lcd_gotoxy>
		lcd_putc(5);
     cf6:	85 e0       	ldi	r24, 0x05	; 5
     cf8:	0e 94 f0 00 	call	0x1e0	; 0x1e0 <lcd_putc>
		lcd_gotoxy(21,0);
     cfc:	60 e0       	ldi	r22, 0x00	; 0
     cfe:	85 e1       	ldi	r24, 0x15	; 21
     d00:	0e 94 e2 00 	call	0x1c4	; 0x1c4 <lcd_gotoxy>
		lcd_putc(5);
     d04:	85 e0       	ldi	r24, 0x05	; 5
     d06:	0e 94 f0 00 	call	0x1e0	; 0x1e0 <lcd_putc>
		lcd_gotoxy(22,0);
     d0a:	60 e0       	ldi	r22, 0x00	; 0
     d0c:	86 e1       	ldi	r24, 0x16	; 22
     d0e:	0e 94 e2 00 	call	0x1c4	; 0x1c4 <lcd_gotoxy>
		lcd_putc(5);
     d12:	85 e0       	ldi	r24, 0x05	; 5
     d14:	0e 94 f0 00 	call	0x1e0	; 0x1e0 <lcd_putc>
		lcd_gotoxy(23,0);
     d18:	60 e0       	ldi	r22, 0x00	; 0
     d1a:	87 e1       	ldi	r24, 0x17	; 23
     d1c:	0e 94 e2 00 	call	0x1c4	; 0x1c4 <lcd_gotoxy>
		lcd_putc(5);
     d20:	85 e0       	ldi	r24, 0x05	; 5
     d22:	0e 94 f0 00 	call	0x1e0	; 0x1e0 <lcd_putc>
		lcd_gotoxy(24,0);
     d26:	60 e0       	ldi	r22, 0x00	; 0
     d28:	88 e1       	ldi	r24, 0x18	; 24
     d2a:	0e 94 e2 00 	call	0x1c4	; 0x1c4 <lcd_gotoxy>
		lcd_putc(5);
     d2e:	85 e0       	ldi	r24, 0x05	; 5
     d30:	0e 94 f0 00 	call	0x1e0	; 0x1e0 <lcd_putc>
		lcd_gotoxy(25,0);
     d34:	60 e0       	ldi	r22, 0x00	; 0
     d36:	89 e1       	ldi	r24, 0x19	; 25
     d38:	0e 94 e2 00 	call	0x1c4	; 0x1c4 <lcd_gotoxy>
		lcd_putc(4);
     d3c:	84 e0       	ldi	r24, 0x04	; 4
     d3e:	0e 94 f0 00 	call	0x1e0	; 0x1e0 <lcd_putc>
		lcd_gotoxy(26,0);
     d42:	60 e0       	ldi	r22, 0x00	; 0
     d44:	8a e1       	ldi	r24, 0x1A	; 26
     d46:	0e 94 e2 00 	call	0x1c4	; 0x1c4 <lcd_gotoxy>
		lcd_puts("               ");
     d4a:	80 ee       	ldi	r24, 0xE0	; 224
     d4c:	91 e0       	ldi	r25, 0x01	; 1
     d4e:	0e 94 f4 00 	call	0x1e8	; 0x1e8 <lcd_puts>
     d52:	08 95       	ret
	}
	else if (distance<=220 && distance>210)
     d54:	9c 01       	movw	r18, r24
     d56:	23 5d       	subi	r18, 0xD3	; 211
     d58:	31 09       	sbc	r19, r1
     d5a:	2a 30       	cpi	r18, 0x0A	; 10
     d5c:	31 05       	cpc	r19, r1
     d5e:	98 f5       	brcc	.+102    	; 0xdc6 <__stack+0x4c7>
	{
		lcd_gotoxy(20,0);
     d60:	60 e0       	ldi	r22, 0x00	; 0
     d62:	84 e1       	ldi	r24, 0x14	; 20
     d64:	0e 94 e2 00 	call	0x1c4	; 0x1c4 <lcd_gotoxy>
		lcd_putc(5);
     d68:	85 e0       	ldi	r24, 0x05	; 5
     d6a:	0e 94 f0 00 	call	0x1e0	; 0x1e0 <lcd_putc>
		lcd_gotoxy(21,0);
     d6e:	60 e0       	ldi	r22, 0x00	; 0
     d70:	85 e1       	ldi	r24, 0x15	; 21
     d72:	0e 94 e2 00 	call	0x1c4	; 0x1c4 <lcd_gotoxy>
		lcd_putc(5);
     d76:	85 e0       	ldi	r24, 0x05	; 5
     d78:	0e 94 f0 00 	call	0x1e0	; 0x1e0 <lcd_putc>
		lcd_gotoxy(22,0);
     d7c:	60 e0       	ldi	r22, 0x00	; 0
     d7e:	86 e1       	ldi	r24, 0x16	; 22
     d80:	0e 94 e2 00 	call	0x1c4	; 0x1c4 <lcd_gotoxy>
		lcd_putc(5);
     d84:	85 e0       	ldi	r24, 0x05	; 5
     d86:	0e 94 f0 00 	call	0x1e0	; 0x1e0 <lcd_putc>
		lcd_gotoxy(23,0);
     d8a:	60 e0       	ldi	r22, 0x00	; 0
     d8c:	87 e1       	ldi	r24, 0x17	; 23
     d8e:	0e 94 e2 00 	call	0x1c4	; 0x1c4 <lcd_gotoxy>
		lcd_putc(5);
     d92:	85 e0       	ldi	r24, 0x05	; 5
     d94:	0e 94 f0 00 	call	0x1e0	; 0x1e0 <lcd_putc>
		lcd_gotoxy(24,0);
     d98:	60 e0       	ldi	r22, 0x00	; 0
     d9a:	88 e1       	ldi	r24, 0x18	; 24
     d9c:	0e 94 e2 00 	call	0x1c4	; 0x1c4 <lcd_gotoxy>
		lcd_putc(5);
     da0:	85 e0       	ldi	r24, 0x05	; 5
     da2:	0e 94 f0 00 	call	0x1e0	; 0x1e0 <lcd_putc>
		lcd_gotoxy(25,0);
     da6:	60 e0       	ldi	r22, 0x00	; 0
     da8:	89 e1       	ldi	r24, 0x19	; 25
     daa:	0e 94 e2 00 	call	0x1c4	; 0x1c4 <lcd_gotoxy>
		lcd_putc(5);
     dae:	85 e0       	ldi	r24, 0x05	; 5
     db0:	0e 94 f0 00 	call	0x1e0	; 0x1e0 <lcd_putc>
		lcd_gotoxy(26,0);
     db4:	60 e0       	ldi	r22, 0x00	; 0
     db6:	8a e1       	ldi	r24, 0x1A	; 26
     db8:	0e 94 e2 00 	call	0x1c4	; 0x1c4 <lcd_gotoxy>
		lcd_puts("               ");
     dbc:	80 ee       	ldi	r24, 0xE0	; 224
     dbe:	91 e0       	ldi	r25, 0x01	; 1
     dc0:	0e 94 f4 00 	call	0x1e8	; 0x1e8 <lcd_puts>
     dc4:	08 95       	ret
	}
	else if (distance<=210 && distance>200)
     dc6:	9c 01       	movw	r18, r24
     dc8:	29 5c       	subi	r18, 0xC9	; 201
     dca:	31 09       	sbc	r19, r1
     dcc:	2a 30       	cpi	r18, 0x0A	; 10
     dce:	31 05       	cpc	r19, r1
     dd0:	d0 f5       	brcc	.+116    	; 0xe46 <__stack+0x547>
	{
		lcd_gotoxy(20,0);
     dd2:	60 e0       	ldi	r22, 0x00	; 0
     dd4:	84 e1       	ldi	r24, 0x14	; 20
     dd6:	0e 94 e2 00 	call	0x1c4	; 0x1c4 <lcd_gotoxy>
		lcd_putc(5);
     dda:	85 e0       	ldi	r24, 0x05	; 5
     ddc:	0e 94 f0 00 	call	0x1e0	; 0x1e0 <lcd_putc>
		lcd_gotoxy(21,0);
     de0:	60 e0       	ldi	r22, 0x00	; 0
     de2:	85 e1       	ldi	r24, 0x15	; 21
     de4:	0e 94 e2 00 	call	0x1c4	; 0x1c4 <lcd_gotoxy>
		lcd_putc(5);
     de8:	85 e0       	ldi	r24, 0x05	; 5
     dea:	0e 94 f0 00 	call	0x1e0	; 0x1e0 <lcd_putc>
		lcd_gotoxy(22,0);
     dee:	60 e0       	ldi	r22, 0x00	; 0
     df0:	86 e1       	ldi	r24, 0x16	; 22
     df2:	0e 94 e2 00 	call	0x1c4	; 0x1c4 <lcd_gotoxy>
		lcd_putc(5);
     df6:	85 e0       	ldi	r24, 0x05	; 5
     df8:	0e 94 f0 00 	call	0x1e0	; 0x1e0 <lcd_putc>
		lcd_gotoxy(23,0);
     dfc:	60 e0       	ldi	r22, 0x00	; 0
     dfe:	87 e1       	ldi	r24, 0x17	; 23
     e00:	0e 94 e2 00 	call	0x1c4	; 0x1c4 <lcd_gotoxy>
		lcd_putc(5);
     e04:	85 e0       	ldi	r24, 0x05	; 5
     e06:	0e 94 f0 00 	call	0x1e0	; 0x1e0 <lcd_putc>
		lcd_gotoxy(24,0);
     e0a:	60 e0       	ldi	r22, 0x00	; 0
     e0c:	88 e1       	ldi	r24, 0x18	; 24
     e0e:	0e 94 e2 00 	call	0x1c4	; 0x1c4 <lcd_gotoxy>
		lcd_putc(5);
     e12:	85 e0       	ldi	r24, 0x05	; 5
     e14:	0e 94 f0 00 	call	0x1e0	; 0x1e0 <lcd_putc>
		lcd_gotoxy(25,0);
     e18:	60 e0       	ldi	r22, 0x00	; 0
     e1a:	89 e1       	ldi	r24, 0x19	; 25
     e1c:	0e 94 e2 00 	call	0x1c4	; 0x1c4 <lcd_gotoxy>
		lcd_putc(5);
     e20:	85 e0       	ldi	r24, 0x05	; 5
     e22:	0e 94 f0 00 	call	0x1e0	; 0x1e0 <lcd_putc>
		lcd_gotoxy(26,0);
     e26:	60 e0       	ldi	r22, 0x00	; 0
     e28:	8a e1       	ldi	r24, 0x1A	; 26
     e2a:	0e 94 e2 00 	call	0x1c4	; 0x1c4 <lcd_gotoxy>
		lcd_putc(1);
     e2e:	81 e0       	ldi	r24, 0x01	; 1
     e30:	0e 94 f0 00 	call	0x1e0	; 0x1e0 <lcd_putc>
		lcd_gotoxy(27,0);
     e34:	60 e0       	ldi	r22, 0x00	; 0
     e36:	8b e1       	ldi	r24, 0x1B	; 27
     e38:	0e 94 e2 00 	call	0x1c4	; 0x1c4 <lcd_gotoxy>
		lcd_puts("              ");
     e3c:	81 ee       	ldi	r24, 0xE1	; 225
     e3e:	91 e0       	ldi	r25, 0x01	; 1
     e40:	0e 94 f4 00 	call	0x1e8	; 0x1e8 <lcd_puts>
     e44:	08 95       	ret
	}
	else if (distance<=200 && distance>190)
     e46:	9c 01       	movw	r18, r24
     e48:	2f 5b       	subi	r18, 0xBF	; 191
     e4a:	31 09       	sbc	r19, r1
     e4c:	2a 30       	cpi	r18, 0x0A	; 10
     e4e:	31 05       	cpc	r19, r1
     e50:	d0 f5       	brcc	.+116    	; 0xec6 <__stack+0x5c7>
	{
		lcd_gotoxy(20,0);
     e52:	60 e0       	ldi	r22, 0x00	; 0
     e54:	84 e1       	ldi	r24, 0x14	; 20
     e56:	0e 94 e2 00 	call	0x1c4	; 0x1c4 <lcd_gotoxy>
		lcd_putc(5);
     e5a:	85 e0       	ldi	r24, 0x05	; 5
     e5c:	0e 94 f0 00 	call	0x1e0	; 0x1e0 <lcd_putc>
		lcd_gotoxy(21,0);
     e60:	60 e0       	ldi	r22, 0x00	; 0
     e62:	85 e1       	ldi	r24, 0x15	; 21
     e64:	0e 94 e2 00 	call	0x1c4	; 0x1c4 <lcd_gotoxy>
		lcd_putc(5);
     e68:	85 e0       	ldi	r24, 0x05	; 5
     e6a:	0e 94 f0 00 	call	0x1e0	; 0x1e0 <lcd_putc>
		lcd_gotoxy(22,0);
     e6e:	60 e0       	ldi	r22, 0x00	; 0
     e70:	86 e1       	ldi	r24, 0x16	; 22
     e72:	0e 94 e2 00 	call	0x1c4	; 0x1c4 <lcd_gotoxy>
		lcd_putc(5);
     e76:	85 e0       	ldi	r24, 0x05	; 5
     e78:	0e 94 f0 00 	call	0x1e0	; 0x1e0 <lcd_putc>
		lcd_gotoxy(23,0);
     e7c:	60 e0       	ldi	r22, 0x00	; 0
     e7e:	87 e1       	ldi	r24, 0x17	; 23
     e80:	0e 94 e2 00 	call	0x1c4	; 0x1c4 <lcd_gotoxy>
		lcd_putc(5);
     e84:	85 e0       	ldi	r24, 0x05	; 5
     e86:	0e 94 f0 00 	call	0x1e0	; 0x1e0 <lcd_putc>
		lcd_gotoxy(24,0);
     e8a:	60 e0       	ldi	r22, 0x00	; 0
     e8c:	88 e1       	ldi	r24, 0x18	; 24
     e8e:	0e 94 e2 00 	call	0x1c4	; 0x1c4 <lcd_gotoxy>
		lcd_putc(5);
     e92:	85 e0       	ldi	r24, 0x05	; 5
     e94:	0e 94 f0 00 	call	0x1e0	; 0x1e0 <lcd_putc>
		lcd_gotoxy(25,0);
     e98:	60 e0       	ldi	r22, 0x00	; 0
     e9a:	89 e1       	ldi	r24, 0x19	; 25
     e9c:	0e 94 e2 00 	call	0x1c4	; 0x1c4 <lcd_gotoxy>
		lcd_putc(5);
     ea0:	85 e0       	ldi	r24, 0x05	; 5
     ea2:	0e 94 f0 00 	call	0x1e0	; 0x1e0 <lcd_putc>
		lcd_gotoxy(26,0);
     ea6:	60 e0       	ldi	r22, 0x00	; 0
     ea8:	8a e1       	ldi	r24, 0x1A	; 26
     eaa:	0e 94 e2 00 	call	0x1c4	; 0x1c4 <lcd_gotoxy>
		lcd_putc(2);
     eae:	82 e0       	ldi	r24, 0x02	; 2
     eb0:	0e 94 f0 00 	call	0x1e0	; 0x1e0 <lcd_putc>
		lcd_gotoxy(27,0);
     eb4:	60 e0       	ldi	r22, 0x00	; 0
     eb6:	8b e1       	ldi	r24, 0x1B	; 27
     eb8:	0e 94 e2 00 	call	0x1c4	; 0x1c4 <lcd_gotoxy>
		lcd_puts("              ");
     ebc:	81 ee       	ldi	r24, 0xE1	; 225
     ebe:	91 e0       	ldi	r25, 0x01	; 1
     ec0:	0e 94 f4 00 	call	0x1e8	; 0x1e8 <lcd_puts>
     ec4:	08 95       	ret
	}
	else if (distance<=190 && distance>180)
     ec6:	9c 01       	movw	r18, r24
     ec8:	25 5b       	subi	r18, 0xB5	; 181
     eca:	31 09       	sbc	r19, r1
     ecc:	2a 30       	cpi	r18, 0x0A	; 10
     ece:	31 05       	cpc	r19, r1
     ed0:	d0 f5       	brcc	.+116    	; 0xf46 <__stack+0x647>
	{
		lcd_gotoxy(20,0);
     ed2:	60 e0       	ldi	r22, 0x00	; 0
     ed4:	84 e1       	ldi	r24, 0x14	; 20
     ed6:	0e 94 e2 00 	call	0x1c4	; 0x1c4 <lcd_gotoxy>
		lcd_putc(5);
     eda:	85 e0       	ldi	r24, 0x05	; 5
     edc:	0e 94 f0 00 	call	0x1e0	; 0x1e0 <lcd_putc>
		lcd_gotoxy(21,0);
     ee0:	60 e0       	ldi	r22, 0x00	; 0
     ee2:	85 e1       	ldi	r24, 0x15	; 21
     ee4:	0e 94 e2 00 	call	0x1c4	; 0x1c4 <lcd_gotoxy>
		lcd_putc(5);
     ee8:	85 e0       	ldi	r24, 0x05	; 5
     eea:	0e 94 f0 00 	call	0x1e0	; 0x1e0 <lcd_putc>
		lcd_gotoxy(22,0);
     eee:	60 e0       	ldi	r22, 0x00	; 0
     ef0:	86 e1       	ldi	r24, 0x16	; 22
     ef2:	0e 94 e2 00 	call	0x1c4	; 0x1c4 <lcd_gotoxy>
		lcd_putc(5);
     ef6:	85 e0       	ldi	r24, 0x05	; 5
     ef8:	0e 94 f0 00 	call	0x1e0	; 0x1e0 <lcd_putc>
		lcd_gotoxy(23,0);
     efc:	60 e0       	ldi	r22, 0x00	; 0
     efe:	87 e1       	ldi	r24, 0x17	; 23
     f00:	0e 94 e2 00 	call	0x1c4	; 0x1c4 <lcd_gotoxy>
		lcd_putc(5);
     f04:	85 e0       	ldi	r24, 0x05	; 5
     f06:	0e 94 f0 00 	call	0x1e0	; 0x1e0 <lcd_putc>
		lcd_gotoxy(24,0);
     f0a:	60 e0       	ldi	r22, 0x00	; 0
     f0c:	88 e1       	ldi	r24, 0x18	; 24
     f0e:	0e 94 e2 00 	call	0x1c4	; 0x1c4 <lcd_gotoxy>
		lcd_putc(5);
     f12:	85 e0       	ldi	r24, 0x05	; 5
     f14:	0e 94 f0 00 	call	0x1e0	; 0x1e0 <lcd_putc>
		lcd_gotoxy(25,0);
     f18:	60 e0       	ldi	r22, 0x00	; 0
     f1a:	89 e1       	ldi	r24, 0x19	; 25
     f1c:	0e 94 e2 00 	call	0x1c4	; 0x1c4 <lcd_gotoxy>
		lcd_putc(5);
     f20:	85 e0       	ldi	r24, 0x05	; 5
     f22:	0e 94 f0 00 	call	0x1e0	; 0x1e0 <lcd_putc>
		lcd_gotoxy(26,0);
     f26:	60 e0       	ldi	r22, 0x00	; 0
     f28:	8a e1       	ldi	r24, 0x1A	; 26
     f2a:	0e 94 e2 00 	call	0x1c4	; 0x1c4 <lcd_gotoxy>
		lcd_putc(3);
     f2e:	83 e0       	ldi	r24, 0x03	; 3
     f30:	0e 94 f0 00 	call	0x1e0	; 0x1e0 <lcd_putc>
		lcd_gotoxy(27,0);
     f34:	60 e0       	ldi	r22, 0x00	; 0
     f36:	8b e1       	ldi	r24, 0x1B	; 27
     f38:	0e 94 e2 00 	call	0x1c4	; 0x1c4 <lcd_gotoxy>
		lcd_puts("              ");
     f3c:	81 ee       	ldi	r24, 0xE1	; 225
     f3e:	91 e0       	ldi	r25, 0x01	; 1
     f40:	0e 94 f4 00 	call	0x1e8	; 0x1e8 <lcd_puts>
     f44:	08 95       	ret
	}
	else if (distance<=180 && distance>170)
     f46:	9c 01       	movw	r18, r24
     f48:	2b 5a       	subi	r18, 0xAB	; 171
     f4a:	31 09       	sbc	r19, r1
     f4c:	2a 30       	cpi	r18, 0x0A	; 10
     f4e:	31 05       	cpc	r19, r1
     f50:	d0 f5       	brcc	.+116    	; 0xfc6 <__stack+0x6c7>
	{
		lcd_gotoxy(20,0);
     f52:	60 e0       	ldi	r22, 0x00	; 0
     f54:	84 e1       	ldi	r24, 0x14	; 20
     f56:	0e 94 e2 00 	call	0x1c4	; 0x1c4 <lcd_gotoxy>
		lcd_putc(5);
     f5a:	85 e0       	ldi	r24, 0x05	; 5
     f5c:	0e 94 f0 00 	call	0x1e0	; 0x1e0 <lcd_putc>
		lcd_gotoxy(21,0);
     f60:	60 e0       	ldi	r22, 0x00	; 0
     f62:	85 e1       	ldi	r24, 0x15	; 21
     f64:	0e 94 e2 00 	call	0x1c4	; 0x1c4 <lcd_gotoxy>
		lcd_putc(5);
     f68:	85 e0       	ldi	r24, 0x05	; 5
     f6a:	0e 94 f0 00 	call	0x1e0	; 0x1e0 <lcd_putc>
		lcd_gotoxy(22,0);
     f6e:	60 e0       	ldi	r22, 0x00	; 0
     f70:	86 e1       	ldi	r24, 0x16	; 22
     f72:	0e 94 e2 00 	call	0x1c4	; 0x1c4 <lcd_gotoxy>
		lcd_putc(5);
     f76:	85 e0       	ldi	r24, 0x05	; 5
     f78:	0e 94 f0 00 	call	0x1e0	; 0x1e0 <lcd_putc>
		lcd_gotoxy(23,0);
     f7c:	60 e0       	ldi	r22, 0x00	; 0
     f7e:	87 e1       	ldi	r24, 0x17	; 23
     f80:	0e 94 e2 00 	call	0x1c4	; 0x1c4 <lcd_gotoxy>
		lcd_putc(5);
     f84:	85 e0       	ldi	r24, 0x05	; 5
     f86:	0e 94 f0 00 	call	0x1e0	; 0x1e0 <lcd_putc>
		lcd_gotoxy(24,0);
     f8a:	60 e0       	ldi	r22, 0x00	; 0
     f8c:	88 e1       	ldi	r24, 0x18	; 24
     f8e:	0e 94 e2 00 	call	0x1c4	; 0x1c4 <lcd_gotoxy>
		lcd_putc(5);
     f92:	85 e0       	ldi	r24, 0x05	; 5
     f94:	0e 94 f0 00 	call	0x1e0	; 0x1e0 <lcd_putc>
		lcd_gotoxy(25,0);
     f98:	60 e0       	ldi	r22, 0x00	; 0
     f9a:	89 e1       	ldi	r24, 0x19	; 25
     f9c:	0e 94 e2 00 	call	0x1c4	; 0x1c4 <lcd_gotoxy>
		lcd_putc(5);
     fa0:	85 e0       	ldi	r24, 0x05	; 5
     fa2:	0e 94 f0 00 	call	0x1e0	; 0x1e0 <lcd_putc>
		lcd_gotoxy(26,0);
     fa6:	60 e0       	ldi	r22, 0x00	; 0
     fa8:	8a e1       	ldi	r24, 0x1A	; 26
     faa:	0e 94 e2 00 	call	0x1c4	; 0x1c4 <lcd_gotoxy>
		lcd_putc(4);
     fae:	84 e0       	ldi	r24, 0x04	; 4
     fb0:	0e 94 f0 00 	call	0x1e0	; 0x1e0 <lcd_putc>
		lcd_gotoxy(27,0);
     fb4:	60 e0       	ldi	r22, 0x00	; 0
     fb6:	8b e1       	ldi	r24, 0x1B	; 27
     fb8:	0e 94 e2 00 	call	0x1c4	; 0x1c4 <lcd_gotoxy>
		lcd_puts("              ");
     fbc:	81 ee       	ldi	r24, 0xE1	; 225
     fbe:	91 e0       	ldi	r25, 0x01	; 1
     fc0:	0e 94 f4 00 	call	0x1e8	; 0x1e8 <lcd_puts>
     fc4:	08 95       	ret
	}
	else if (distance<=170 && distance>160)
     fc6:	9c 01       	movw	r18, r24
     fc8:	21 5a       	subi	r18, 0xA1	; 161
     fca:	31 09       	sbc	r19, r1
     fcc:	2a 30       	cpi	r18, 0x0A	; 10
     fce:	31 05       	cpc	r19, r1
     fd0:	d0 f5       	brcc	.+116    	; 0x1046 <__stack+0x747>
	{
		lcd_gotoxy(20,0);
     fd2:	60 e0       	ldi	r22, 0x00	; 0
     fd4:	84 e1       	ldi	r24, 0x14	; 20
     fd6:	0e 94 e2 00 	call	0x1c4	; 0x1c4 <lcd_gotoxy>
		lcd_putc(5);
     fda:	85 e0       	ldi	r24, 0x05	; 5
     fdc:	0e 94 f0 00 	call	0x1e0	; 0x1e0 <lcd_putc>
		lcd_gotoxy(21,0);
     fe0:	60 e0       	ldi	r22, 0x00	; 0
     fe2:	85 e1       	ldi	r24, 0x15	; 21
     fe4:	0e 94 e2 00 	call	0x1c4	; 0x1c4 <lcd_gotoxy>
		lcd_putc(5);
     fe8:	85 e0       	ldi	r24, 0x05	; 5
     fea:	0e 94 f0 00 	call	0x1e0	; 0x1e0 <lcd_putc>
		lcd_gotoxy(22,0);
     fee:	60 e0       	ldi	r22, 0x00	; 0
     ff0:	86 e1       	ldi	r24, 0x16	; 22
     ff2:	0e 94 e2 00 	call	0x1c4	; 0x1c4 <lcd_gotoxy>
		lcd_putc(5);
     ff6:	85 e0       	ldi	r24, 0x05	; 5
     ff8:	0e 94 f0 00 	call	0x1e0	; 0x1e0 <lcd_putc>
		lcd_gotoxy(23,0);
     ffc:	60 e0       	ldi	r22, 0x00	; 0
     ffe:	87 e1       	ldi	r24, 0x17	; 23
    1000:	0e 94 e2 00 	call	0x1c4	; 0x1c4 <lcd_gotoxy>
		lcd_putc(5);
    1004:	85 e0       	ldi	r24, 0x05	; 5
    1006:	0e 94 f0 00 	call	0x1e0	; 0x1e0 <lcd_putc>
		lcd_gotoxy(24,0);
    100a:	60 e0       	ldi	r22, 0x00	; 0
    100c:	88 e1       	ldi	r24, 0x18	; 24
    100e:	0e 94 e2 00 	call	0x1c4	; 0x1c4 <lcd_gotoxy>
		lcd_putc(5);
    1012:	85 e0       	ldi	r24, 0x05	; 5
    1014:	0e 94 f0 00 	call	0x1e0	; 0x1e0 <lcd_putc>
		lcd_gotoxy(25,0);
    1018:	60 e0       	ldi	r22, 0x00	; 0
    101a:	89 e1       	ldi	r24, 0x19	; 25
    101c:	0e 94 e2 00 	call	0x1c4	; 0x1c4 <lcd_gotoxy>
		lcd_putc(5);
    1020:	85 e0       	ldi	r24, 0x05	; 5
    1022:	0e 94 f0 00 	call	0x1e0	; 0x1e0 <lcd_putc>
		lcd_gotoxy(26,0);
    1026:	60 e0       	ldi	r22, 0x00	; 0
    1028:	8a e1       	ldi	r24, 0x1A	; 26
    102a:	0e 94 e2 00 	call	0x1c4	; 0x1c4 <lcd_gotoxy>
		lcd_putc(5);
    102e:	85 e0       	ldi	r24, 0x05	; 5
    1030:	0e 94 f0 00 	call	0x1e0	; 0x1e0 <lcd_putc>
		lcd_gotoxy(27,0);
    1034:	60 e0       	ldi	r22, 0x00	; 0
    1036:	8b e1       	ldi	r24, 0x1B	; 27
    1038:	0e 94 e2 00 	call	0x1c4	; 0x1c4 <lcd_gotoxy>
		lcd_puts("              ");
    103c:	81 ee       	ldi	r24, 0xE1	; 225
    103e:	91 e0       	ldi	r25, 0x01	; 1
    1040:	0e 94 f4 00 	call	0x1e8	; 0x1e8 <lcd_puts>
    1044:	08 95       	ret
	}
	else if (distance<=160 && distance>150)
    1046:	9c 01       	movw	r18, r24
    1048:	27 59       	subi	r18, 0x97	; 151
    104a:	31 09       	sbc	r19, r1
    104c:	2a 30       	cpi	r18, 0x0A	; 10
    104e:	31 05       	cpc	r19, r1
    1050:	08 f0       	brcs	.+2      	; 0x1054 <__stack+0x755>
    1052:	41 c0       	rjmp	.+130    	; 0x10d6 <__stack+0x7d7>
	{
		lcd_gotoxy(20,0);
    1054:	60 e0       	ldi	r22, 0x00	; 0
    1056:	84 e1       	ldi	r24, 0x14	; 20
    1058:	0e 94 e2 00 	call	0x1c4	; 0x1c4 <lcd_gotoxy>
		lcd_putc(5);
    105c:	85 e0       	ldi	r24, 0x05	; 5
    105e:	0e 94 f0 00 	call	0x1e0	; 0x1e0 <lcd_putc>
		lcd_gotoxy(21,0);
    1062:	60 e0       	ldi	r22, 0x00	; 0
    1064:	85 e1       	ldi	r24, 0x15	; 21
    1066:	0e 94 e2 00 	call	0x1c4	; 0x1c4 <lcd_gotoxy>
		lcd_putc(5);
    106a:	85 e0       	ldi	r24, 0x05	; 5
    106c:	0e 94 f0 00 	call	0x1e0	; 0x1e0 <lcd_putc>
		lcd_gotoxy(22,0);
    1070:	60 e0       	ldi	r22, 0x00	; 0
    1072:	86 e1       	ldi	r24, 0x16	; 22
    1074:	0e 94 e2 00 	call	0x1c4	; 0x1c4 <lcd_gotoxy>
		lcd_putc(5);
    1078:	85 e0       	ldi	r24, 0x05	; 5
    107a:	0e 94 f0 00 	call	0x1e0	; 0x1e0 <lcd_putc>
		lcd_gotoxy(23,0);
    107e:	60 e0       	ldi	r22, 0x00	; 0
    1080:	87 e1       	ldi	r24, 0x17	; 23
    1082:	0e 94 e2 00 	call	0x1c4	; 0x1c4 <lcd_gotoxy>
		lcd_putc(5);
    1086:	85 e0       	ldi	r24, 0x05	; 5
    1088:	0e 94 f0 00 	call	0x1e0	; 0x1e0 <lcd_putc>
		lcd_gotoxy(24,0);
    108c:	60 e0       	ldi	r22, 0x00	; 0
    108e:	88 e1       	ldi	r24, 0x18	; 24
    1090:	0e 94 e2 00 	call	0x1c4	; 0x1c4 <lcd_gotoxy>
		lcd_putc(5);
    1094:	85 e0       	ldi	r24, 0x05	; 5
    1096:	0e 94 f0 00 	call	0x1e0	; 0x1e0 <lcd_putc>
		lcd_gotoxy(25,0);
    109a:	60 e0       	ldi	r22, 0x00	; 0
    109c:	89 e1       	ldi	r24, 0x19	; 25
    109e:	0e 94 e2 00 	call	0x1c4	; 0x1c4 <lcd_gotoxy>
		lcd_putc(5);
    10a2:	85 e0       	ldi	r24, 0x05	; 5
    10a4:	0e 94 f0 00 	call	0x1e0	; 0x1e0 <lcd_putc>
		lcd_gotoxy(26,0);
    10a8:	60 e0       	ldi	r22, 0x00	; 0
    10aa:	8a e1       	ldi	r24, 0x1A	; 26
    10ac:	0e 94 e2 00 	call	0x1c4	; 0x1c4 <lcd_gotoxy>
		lcd_putc(5);
    10b0:	85 e0       	ldi	r24, 0x05	; 5
    10b2:	0e 94 f0 00 	call	0x1e0	; 0x1e0 <lcd_putc>
		lcd_gotoxy(27,0);
    10b6:	60 e0       	ldi	r22, 0x00	; 0
    10b8:	8b e1       	ldi	r24, 0x1B	; 27
    10ba:	0e 94 e2 00 	call	0x1c4	; 0x1c4 <lcd_gotoxy>
		lcd_putc(1);
    10be:	81 e0       	ldi	r24, 0x01	; 1
    10c0:	0e 94 f0 00 	call	0x1e0	; 0x1e0 <lcd_putc>
		lcd_gotoxy(28,0);
    10c4:	60 e0       	ldi	r22, 0x00	; 0
    10c6:	8c e1       	ldi	r24, 0x1C	; 28
    10c8:	0e 94 e2 00 	call	0x1c4	; 0x1c4 <lcd_gotoxy>
		lcd_puts("             ");
    10cc:	82 ee       	ldi	r24, 0xE2	; 226
    10ce:	91 e0       	ldi	r25, 0x01	; 1
    10d0:	0e 94 f4 00 	call	0x1e8	; 0x1e8 <lcd_puts>
    10d4:	08 95       	ret
	}
	else if (distance<=150 && distance>140)
    10d6:	9c 01       	movw	r18, r24
    10d8:	2d 58       	subi	r18, 0x8D	; 141
    10da:	31 09       	sbc	r19, r1
    10dc:	2a 30       	cpi	r18, 0x0A	; 10
    10de:	31 05       	cpc	r19, r1
    10e0:	08 f0       	brcs	.+2      	; 0x10e4 <__stack+0x7e5>
    10e2:	41 c0       	rjmp	.+130    	; 0x1166 <__stack+0x867>
	{
		lcd_gotoxy(20,0);
    10e4:	60 e0       	ldi	r22, 0x00	; 0
    10e6:	84 e1       	ldi	r24, 0x14	; 20
    10e8:	0e 94 e2 00 	call	0x1c4	; 0x1c4 <lcd_gotoxy>
		lcd_putc(5);
    10ec:	85 e0       	ldi	r24, 0x05	; 5
    10ee:	0e 94 f0 00 	call	0x1e0	; 0x1e0 <lcd_putc>
		lcd_gotoxy(21,0);
    10f2:	60 e0       	ldi	r22, 0x00	; 0
    10f4:	85 e1       	ldi	r24, 0x15	; 21
    10f6:	0e 94 e2 00 	call	0x1c4	; 0x1c4 <lcd_gotoxy>
		lcd_putc(5);
    10fa:	85 e0       	ldi	r24, 0x05	; 5
    10fc:	0e 94 f0 00 	call	0x1e0	; 0x1e0 <lcd_putc>
		lcd_gotoxy(22,0);
    1100:	60 e0       	ldi	r22, 0x00	; 0
    1102:	86 e1       	ldi	r24, 0x16	; 22
    1104:	0e 94 e2 00 	call	0x1c4	; 0x1c4 <lcd_gotoxy>
		lcd_putc(5);
    1108:	85 e0       	ldi	r24, 0x05	; 5
    110a:	0e 94 f0 00 	call	0x1e0	; 0x1e0 <lcd_putc>
		lcd_gotoxy(23,0);
    110e:	60 e0       	ldi	r22, 0x00	; 0
    1110:	87 e1       	ldi	r24, 0x17	; 23
    1112:	0e 94 e2 00 	call	0x1c4	; 0x1c4 <lcd_gotoxy>
		lcd_putc(5);
    1116:	85 e0       	ldi	r24, 0x05	; 5
    1118:	0e 94 f0 00 	call	0x1e0	; 0x1e0 <lcd_putc>
		lcd_gotoxy(24,0);
    111c:	60 e0       	ldi	r22, 0x00	; 0
    111e:	88 e1       	ldi	r24, 0x18	; 24
    1120:	0e 94 e2 00 	call	0x1c4	; 0x1c4 <lcd_gotoxy>
		lcd_putc(5);
    1124:	85 e0       	ldi	r24, 0x05	; 5
    1126:	0e 94 f0 00 	call	0x1e0	; 0x1e0 <lcd_putc>
		lcd_gotoxy(25,0);
    112a:	60 e0       	ldi	r22, 0x00	; 0
    112c:	89 e1       	ldi	r24, 0x19	; 25
    112e:	0e 94 e2 00 	call	0x1c4	; 0x1c4 <lcd_gotoxy>
		lcd_putc(5);
    1132:	85 e0       	ldi	r24, 0x05	; 5
    1134:	0e 94 f0 00 	call	0x1e0	; 0x1e0 <lcd_putc>
		lcd_gotoxy(26,0);
    1138:	60 e0       	ldi	r22, 0x00	; 0
    113a:	8a e1       	ldi	r24, 0x1A	; 26
    113c:	0e 94 e2 00 	call	0x1c4	; 0x1c4 <lcd_gotoxy>
		lcd_putc(5);
    1140:	85 e0       	ldi	r24, 0x05	; 5
    1142:	0e 94 f0 00 	call	0x1e0	; 0x1e0 <lcd_putc>
		lcd_gotoxy(27,0);
    1146:	60 e0       	ldi	r22, 0x00	; 0
    1148:	8b e1       	ldi	r24, 0x1B	; 27
    114a:	0e 94 e2 00 	call	0x1c4	; 0x1c4 <lcd_gotoxy>
		lcd_putc(2);
    114e:	82 e0       	ldi	r24, 0x02	; 2
    1150:	0e 94 f0 00 	call	0x1e0	; 0x1e0 <lcd_putc>
		lcd_gotoxy(28,0);
    1154:	60 e0       	ldi	r22, 0x00	; 0
    1156:	8c e1       	ldi	r24, 0x1C	; 28
    1158:	0e 94 e2 00 	call	0x1c4	; 0x1c4 <lcd_gotoxy>
		lcd_puts("             ");
    115c:	82 ee       	ldi	r24, 0xE2	; 226
    115e:	91 e0       	ldi	r25, 0x01	; 1
    1160:	0e 94 f4 00 	call	0x1e8	; 0x1e8 <lcd_puts>
    1164:	08 95       	ret
	}
	else if (distance<=140 && distance>130)
    1166:	9c 01       	movw	r18, r24
    1168:	23 58       	subi	r18, 0x83	; 131
    116a:	31 09       	sbc	r19, r1
    116c:	2a 30       	cpi	r18, 0x0A	; 10
    116e:	31 05       	cpc	r19, r1
    1170:	08 f0       	brcs	.+2      	; 0x1174 <__stack+0x875>
    1172:	41 c0       	rjmp	.+130    	; 0x11f6 <__stack+0x8f7>
	{
		lcd_gotoxy(20,0);
    1174:	60 e0       	ldi	r22, 0x00	; 0
    1176:	84 e1       	ldi	r24, 0x14	; 20
    1178:	0e 94 e2 00 	call	0x1c4	; 0x1c4 <lcd_gotoxy>
		lcd_putc(5);
    117c:	85 e0       	ldi	r24, 0x05	; 5
    117e:	0e 94 f0 00 	call	0x1e0	; 0x1e0 <lcd_putc>
		lcd_gotoxy(21,0);
    1182:	60 e0       	ldi	r22, 0x00	; 0
    1184:	85 e1       	ldi	r24, 0x15	; 21
    1186:	0e 94 e2 00 	call	0x1c4	; 0x1c4 <lcd_gotoxy>
		lcd_putc(5);
    118a:	85 e0       	ldi	r24, 0x05	; 5
    118c:	0e 94 f0 00 	call	0x1e0	; 0x1e0 <lcd_putc>
		lcd_gotoxy(22,0);
    1190:	60 e0       	ldi	r22, 0x00	; 0
    1192:	86 e1       	ldi	r24, 0x16	; 22
    1194:	0e 94 e2 00 	call	0x1c4	; 0x1c4 <lcd_gotoxy>
		lcd_putc(5);
    1198:	85 e0       	ldi	r24, 0x05	; 5
    119a:	0e 94 f0 00 	call	0x1e0	; 0x1e0 <lcd_putc>
		lcd_gotoxy(23,0);
    119e:	60 e0       	ldi	r22, 0x00	; 0
    11a0:	87 e1       	ldi	r24, 0x17	; 23
    11a2:	0e 94 e2 00 	call	0x1c4	; 0x1c4 <lcd_gotoxy>
		lcd_putc(5);
    11a6:	85 e0       	ldi	r24, 0x05	; 5
    11a8:	0e 94 f0 00 	call	0x1e0	; 0x1e0 <lcd_putc>
		lcd_gotoxy(24,0);
    11ac:	60 e0       	ldi	r22, 0x00	; 0
    11ae:	88 e1       	ldi	r24, 0x18	; 24
    11b0:	0e 94 e2 00 	call	0x1c4	; 0x1c4 <lcd_gotoxy>
		lcd_putc(5);
    11b4:	85 e0       	ldi	r24, 0x05	; 5
    11b6:	0e 94 f0 00 	call	0x1e0	; 0x1e0 <lcd_putc>
		lcd_gotoxy(25,0);
    11ba:	60 e0       	ldi	r22, 0x00	; 0
    11bc:	89 e1       	ldi	r24, 0x19	; 25
    11be:	0e 94 e2 00 	call	0x1c4	; 0x1c4 <lcd_gotoxy>
		lcd_putc(5);
    11c2:	85 e0       	ldi	r24, 0x05	; 5
    11c4:	0e 94 f0 00 	call	0x1e0	; 0x1e0 <lcd_putc>
		lcd_gotoxy(26,0);
    11c8:	60 e0       	ldi	r22, 0x00	; 0
    11ca:	8a e1       	ldi	r24, 0x1A	; 26
    11cc:	0e 94 e2 00 	call	0x1c4	; 0x1c4 <lcd_gotoxy>
		lcd_putc(5);
    11d0:	85 e0       	ldi	r24, 0x05	; 5
    11d2:	0e 94 f0 00 	call	0x1e0	; 0x1e0 <lcd_putc>
		lcd_gotoxy(27,0);
    11d6:	60 e0       	ldi	r22, 0x00	; 0
    11d8:	8b e1       	ldi	r24, 0x1B	; 27
    11da:	0e 94 e2 00 	call	0x1c4	; 0x1c4 <lcd_gotoxy>
		lcd_putc(3);
    11de:	83 e0       	ldi	r24, 0x03	; 3
    11e0:	0e 94 f0 00 	call	0x1e0	; 0x1e0 <lcd_putc>
		lcd_gotoxy(28,0);
    11e4:	60 e0       	ldi	r22, 0x00	; 0
    11e6:	8c e1       	ldi	r24, 0x1C	; 28
    11e8:	0e 94 e2 00 	call	0x1c4	; 0x1c4 <lcd_gotoxy>
		lcd_puts("             ");
    11ec:	82 ee       	ldi	r24, 0xE2	; 226
    11ee:	91 e0       	ldi	r25, 0x01	; 1
    11f0:	0e 94 f4 00 	call	0x1e8	; 0x1e8 <lcd_puts>
    11f4:	08 95       	ret
	}
	else if (distance<=130 && distance>120)
    11f6:	9c 01       	movw	r18, r24
    11f8:	29 57       	subi	r18, 0x79	; 121
    11fa:	31 09       	sbc	r19, r1
    11fc:	2a 30       	cpi	r18, 0x0A	; 10
    11fe:	31 05       	cpc	r19, r1
    1200:	08 f0       	brcs	.+2      	; 0x1204 <__stack+0x905>
    1202:	41 c0       	rjmp	.+130    	; 0x1286 <__stack+0x987>
	{
		lcd_gotoxy(20,0);
    1204:	60 e0       	ldi	r22, 0x00	; 0
    1206:	84 e1       	ldi	r24, 0x14	; 20
    1208:	0e 94 e2 00 	call	0x1c4	; 0x1c4 <lcd_gotoxy>
		lcd_putc(5);
    120c:	85 e0       	ldi	r24, 0x05	; 5
    120e:	0e 94 f0 00 	call	0x1e0	; 0x1e0 <lcd_putc>
		lcd_gotoxy(21,0);
    1212:	60 e0       	ldi	r22, 0x00	; 0
    1214:	85 e1       	ldi	r24, 0x15	; 21
    1216:	0e 94 e2 00 	call	0x1c4	; 0x1c4 <lcd_gotoxy>
		lcd_putc(5);
    121a:	85 e0       	ldi	r24, 0x05	; 5
    121c:	0e 94 f0 00 	call	0x1e0	; 0x1e0 <lcd_putc>
		lcd_gotoxy(22,0);
    1220:	60 e0       	ldi	r22, 0x00	; 0
    1222:	86 e1       	ldi	r24, 0x16	; 22
    1224:	0e 94 e2 00 	call	0x1c4	; 0x1c4 <lcd_gotoxy>
		lcd_putc(5);
    1228:	85 e0       	ldi	r24, 0x05	; 5
    122a:	0e 94 f0 00 	call	0x1e0	; 0x1e0 <lcd_putc>
		lcd_gotoxy(23,0);
    122e:	60 e0       	ldi	r22, 0x00	; 0
    1230:	87 e1       	ldi	r24, 0x17	; 23
    1232:	0e 94 e2 00 	call	0x1c4	; 0x1c4 <lcd_gotoxy>
		lcd_putc(5);
    1236:	85 e0       	ldi	r24, 0x05	; 5
    1238:	0e 94 f0 00 	call	0x1e0	; 0x1e0 <lcd_putc>
		lcd_gotoxy(24,0);
    123c:	60 e0       	ldi	r22, 0x00	; 0
    123e:	88 e1       	ldi	r24, 0x18	; 24
    1240:	0e 94 e2 00 	call	0x1c4	; 0x1c4 <lcd_gotoxy>
		lcd_putc(5);
    1244:	85 e0       	ldi	r24, 0x05	; 5
    1246:	0e 94 f0 00 	call	0x1e0	; 0x1e0 <lcd_putc>
		lcd_gotoxy(25,0);
    124a:	60 e0       	ldi	r22, 0x00	; 0
    124c:	89 e1       	ldi	r24, 0x19	; 25
    124e:	0e 94 e2 00 	call	0x1c4	; 0x1c4 <lcd_gotoxy>
		lcd_putc(5);
    1252:	85 e0       	ldi	r24, 0x05	; 5
    1254:	0e 94 f0 00 	call	0x1e0	; 0x1e0 <lcd_putc>
		lcd_gotoxy(26,0);
    1258:	60 e0       	ldi	r22, 0x00	; 0
    125a:	8a e1       	ldi	r24, 0x1A	; 26
    125c:	0e 94 e2 00 	call	0x1c4	; 0x1c4 <lcd_gotoxy>
		lcd_putc(5);
    1260:	85 e0       	ldi	r24, 0x05	; 5
    1262:	0e 94 f0 00 	call	0x1e0	; 0x1e0 <lcd_putc>
		lcd_gotoxy(27,0);
    1266:	60 e0       	ldi	r22, 0x00	; 0
    1268:	8b e1       	ldi	r24, 0x1B	; 27
    126a:	0e 94 e2 00 	call	0x1c4	; 0x1c4 <lcd_gotoxy>
		lcd_putc(4);
    126e:	84 e0       	ldi	r24, 0x04	; 4
    1270:	0e 94 f0 00 	call	0x1e0	; 0x1e0 <lcd_putc>
		lcd_gotoxy(28,0);
    1274:	60 e0       	ldi	r22, 0x00	; 0
    1276:	8c e1       	ldi	r24, 0x1C	; 28
    1278:	0e 94 e2 00 	call	0x1c4	; 0x1c4 <lcd_gotoxy>
		lcd_puts("             ");
    127c:	82 ee       	ldi	r24, 0xE2	; 226
    127e:	91 e0       	ldi	r25, 0x01	; 1
    1280:	0e 94 f4 00 	call	0x1e8	; 0x1e8 <lcd_puts>
    1284:	08 95       	ret
	}
	else if (distance<=120 && distance>110)
    1286:	9c 01       	movw	r18, r24
    1288:	2f 56       	subi	r18, 0x6F	; 111
    128a:	31 09       	sbc	r19, r1
    128c:	2a 30       	cpi	r18, 0x0A	; 10
    128e:	31 05       	cpc	r19, r1
    1290:	08 f0       	brcs	.+2      	; 0x1294 <__stack+0x995>
    1292:	41 c0       	rjmp	.+130    	; 0x1316 <__stack+0xa17>
	{
		lcd_gotoxy(20,0);
    1294:	60 e0       	ldi	r22, 0x00	; 0
    1296:	84 e1       	ldi	r24, 0x14	; 20
    1298:	0e 94 e2 00 	call	0x1c4	; 0x1c4 <lcd_gotoxy>
		lcd_putc(5);
    129c:	85 e0       	ldi	r24, 0x05	; 5
    129e:	0e 94 f0 00 	call	0x1e0	; 0x1e0 <lcd_putc>
		lcd_gotoxy(21,0);
    12a2:	60 e0       	ldi	r22, 0x00	; 0
    12a4:	85 e1       	ldi	r24, 0x15	; 21
    12a6:	0e 94 e2 00 	call	0x1c4	; 0x1c4 <lcd_gotoxy>
		lcd_putc(5);
    12aa:	85 e0       	ldi	r24, 0x05	; 5
    12ac:	0e 94 f0 00 	call	0x1e0	; 0x1e0 <lcd_putc>
		lcd_gotoxy(22,0);
    12b0:	60 e0       	ldi	r22, 0x00	; 0
    12b2:	86 e1       	ldi	r24, 0x16	; 22
    12b4:	0e 94 e2 00 	call	0x1c4	; 0x1c4 <lcd_gotoxy>
		lcd_putc(5);
    12b8:	85 e0       	ldi	r24, 0x05	; 5
    12ba:	0e 94 f0 00 	call	0x1e0	; 0x1e0 <lcd_putc>
		lcd_gotoxy(23,0);
    12be:	60 e0       	ldi	r22, 0x00	; 0
    12c0:	87 e1       	ldi	r24, 0x17	; 23
    12c2:	0e 94 e2 00 	call	0x1c4	; 0x1c4 <lcd_gotoxy>
		lcd_putc(5);
    12c6:	85 e0       	ldi	r24, 0x05	; 5
    12c8:	0e 94 f0 00 	call	0x1e0	; 0x1e0 <lcd_putc>
		lcd_gotoxy(24,0);
    12cc:	60 e0       	ldi	r22, 0x00	; 0
    12ce:	88 e1       	ldi	r24, 0x18	; 24
    12d0:	0e 94 e2 00 	call	0x1c4	; 0x1c4 <lcd_gotoxy>
		lcd_putc(5);
    12d4:	85 e0       	ldi	r24, 0x05	; 5
    12d6:	0e 94 f0 00 	call	0x1e0	; 0x1e0 <lcd_putc>
		lcd_gotoxy(25,0);
    12da:	60 e0       	ldi	r22, 0x00	; 0
    12dc:	89 e1       	ldi	r24, 0x19	; 25
    12de:	0e 94 e2 00 	call	0x1c4	; 0x1c4 <lcd_gotoxy>
		lcd_putc(5);
    12e2:	85 e0       	ldi	r24, 0x05	; 5
    12e4:	0e 94 f0 00 	call	0x1e0	; 0x1e0 <lcd_putc>
		lcd_gotoxy(26,0);
    12e8:	60 e0       	ldi	r22, 0x00	; 0
    12ea:	8a e1       	ldi	r24, 0x1A	; 26
    12ec:	0e 94 e2 00 	call	0x1c4	; 0x1c4 <lcd_gotoxy>
		lcd_putc(5);
    12f0:	85 e0       	ldi	r24, 0x05	; 5
    12f2:	0e 94 f0 00 	call	0x1e0	; 0x1e0 <lcd_putc>
		lcd_gotoxy(27,0);
    12f6:	60 e0       	ldi	r22, 0x00	; 0
    12f8:	8b e1       	ldi	r24, 0x1B	; 27
    12fa:	0e 94 e2 00 	call	0x1c4	; 0x1c4 <lcd_gotoxy>
		lcd_putc(5);
    12fe:	85 e0       	ldi	r24, 0x05	; 5
    1300:	0e 94 f0 00 	call	0x1e0	; 0x1e0 <lcd_putc>
		lcd_gotoxy(28,0);
    1304:	60 e0       	ldi	r22, 0x00	; 0
    1306:	8c e1       	ldi	r24, 0x1C	; 28
    1308:	0e 94 e2 00 	call	0x1c4	; 0x1c4 <lcd_gotoxy>
		lcd_puts("             ");
    130c:	82 ee       	ldi	r24, 0xE2	; 226
    130e:	91 e0       	ldi	r25, 0x01	; 1
    1310:	0e 94 f4 00 	call	0x1e8	; 0x1e8 <lcd_puts>
    1314:	08 95       	ret
	}
	else if (distance<=110 && distance>100)
    1316:	9c 01       	movw	r18, r24
    1318:	25 56       	subi	r18, 0x65	; 101
    131a:	31 09       	sbc	r19, r1
    131c:	2a 30       	cpi	r18, 0x0A	; 10
    131e:	31 05       	cpc	r19, r1
    1320:	08 f0       	brcs	.+2      	; 0x1324 <__stack+0xa25>
    1322:	48 c0       	rjmp	.+144    	; 0x13b4 <__stack+0xab5>
	{
		lcd_gotoxy(20,0);
    1324:	60 e0       	ldi	r22, 0x00	; 0
    1326:	84 e1       	ldi	r24, 0x14	; 20
    1328:	0e 94 e2 00 	call	0x1c4	; 0x1c4 <lcd_gotoxy>
		lcd_putc(5);
    132c:	85 e0       	ldi	r24, 0x05	; 5
    132e:	0e 94 f0 00 	call	0x1e0	; 0x1e0 <lcd_putc>
		lcd_gotoxy(21,0);
    1332:	60 e0       	ldi	r22, 0x00	; 0
    1334:	85 e1       	ldi	r24, 0x15	; 21
    1336:	0e 94 e2 00 	call	0x1c4	; 0x1c4 <lcd_gotoxy>
		lcd_putc(5);
    133a:	85 e0       	ldi	r24, 0x05	; 5
    133c:	0e 94 f0 00 	call	0x1e0	; 0x1e0 <lcd_putc>
		lcd_gotoxy(22,0);
    1340:	60 e0       	ldi	r22, 0x00	; 0
    1342:	86 e1       	ldi	r24, 0x16	; 22
    1344:	0e 94 e2 00 	call	0x1c4	; 0x1c4 <lcd_gotoxy>
		lcd_putc(5);
    1348:	85 e0       	ldi	r24, 0x05	; 5
    134a:	0e 94 f0 00 	call	0x1e0	; 0x1e0 <lcd_putc>
		lcd_gotoxy(23,0);
    134e:	60 e0       	ldi	r22, 0x00	; 0
    1350:	87 e1       	ldi	r24, 0x17	; 23
    1352:	0e 94 e2 00 	call	0x1c4	; 0x1c4 <lcd_gotoxy>
		lcd_putc(5);
    1356:	85 e0       	ldi	r24, 0x05	; 5
    1358:	0e 94 f0 00 	call	0x1e0	; 0x1e0 <lcd_putc>
		lcd_gotoxy(24,0);
    135c:	60 e0       	ldi	r22, 0x00	; 0
    135e:	88 e1       	ldi	r24, 0x18	; 24
    1360:	0e 94 e2 00 	call	0x1c4	; 0x1c4 <lcd_gotoxy>
		lcd_putc(5);
    1364:	85 e0       	ldi	r24, 0x05	; 5
    1366:	0e 94 f0 00 	call	0x1e0	; 0x1e0 <lcd_putc>
		lcd_gotoxy(25,0);
    136a:	60 e0       	ldi	r22, 0x00	; 0
    136c:	89 e1       	ldi	r24, 0x19	; 25
    136e:	0e 94 e2 00 	call	0x1c4	; 0x1c4 <lcd_gotoxy>
		lcd_putc(5);
    1372:	85 e0       	ldi	r24, 0x05	; 5
    1374:	0e 94 f0 00 	call	0x1e0	; 0x1e0 <lcd_putc>
		lcd_gotoxy(26,0);
    1378:	60 e0       	ldi	r22, 0x00	; 0
    137a:	8a e1       	ldi	r24, 0x1A	; 26
    137c:	0e 94 e2 00 	call	0x1c4	; 0x1c4 <lcd_gotoxy>
		lcd_putc(5);
    1380:	85 e0       	ldi	r24, 0x05	; 5
    1382:	0e 94 f0 00 	call	0x1e0	; 0x1e0 <lcd_putc>
		lcd_gotoxy(27,0);
    1386:	60 e0       	ldi	r22, 0x00	; 0
    1388:	8b e1       	ldi	r24, 0x1B	; 27
    138a:	0e 94 e2 00 	call	0x1c4	; 0x1c4 <lcd_gotoxy>
		lcd_putc(5);
    138e:	85 e0       	ldi	r24, 0x05	; 5
    1390:	0e 94 f0 00 	call	0x1e0	; 0x1e0 <lcd_putc>
		lcd_gotoxy(28,0);
    1394:	60 e0       	ldi	r22, 0x00	; 0
    1396:	8c e1       	ldi	r24, 0x1C	; 28
    1398:	0e 94 e2 00 	call	0x1c4	; 0x1c4 <lcd_gotoxy>
		lcd_putc(1);
    139c:	81 e0       	ldi	r24, 0x01	; 1
    139e:	0e 94 f0 00 	call	0x1e0	; 0x1e0 <lcd_putc>
		lcd_gotoxy(29,0);
    13a2:	60 e0       	ldi	r22, 0x00	; 0
    13a4:	8d e1       	ldi	r24, 0x1D	; 29
    13a6:	0e 94 e2 00 	call	0x1c4	; 0x1c4 <lcd_gotoxy>
		lcd_puts("            ");
    13aa:	83 ee       	ldi	r24, 0xE3	; 227
    13ac:	91 e0       	ldi	r25, 0x01	; 1
    13ae:	0e 94 f4 00 	call	0x1e8	; 0x1e8 <lcd_puts>
    13b2:	08 95       	ret
	}
	else if (distance<=100 && distance>90)
    13b4:	9c 01       	movw	r18, r24
    13b6:	2b 55       	subi	r18, 0x5B	; 91
    13b8:	31 09       	sbc	r19, r1
    13ba:	2a 30       	cpi	r18, 0x0A	; 10
    13bc:	31 05       	cpc	r19, r1
    13be:	08 f0       	brcs	.+2      	; 0x13c2 <__stack+0xac3>
    13c0:	48 c0       	rjmp	.+144    	; 0x1452 <__stack+0xb53>
	{
		lcd_gotoxy(20,0);
    13c2:	60 e0       	ldi	r22, 0x00	; 0
    13c4:	84 e1       	ldi	r24, 0x14	; 20
    13c6:	0e 94 e2 00 	call	0x1c4	; 0x1c4 <lcd_gotoxy>
		lcd_putc(5);
    13ca:	85 e0       	ldi	r24, 0x05	; 5
    13cc:	0e 94 f0 00 	call	0x1e0	; 0x1e0 <lcd_putc>
		lcd_gotoxy(21,0);
    13d0:	60 e0       	ldi	r22, 0x00	; 0
    13d2:	85 e1       	ldi	r24, 0x15	; 21
    13d4:	0e 94 e2 00 	call	0x1c4	; 0x1c4 <lcd_gotoxy>
		lcd_putc(5);
    13d8:	85 e0       	ldi	r24, 0x05	; 5
    13da:	0e 94 f0 00 	call	0x1e0	; 0x1e0 <lcd_putc>
		lcd_gotoxy(22,0);
    13de:	60 e0       	ldi	r22, 0x00	; 0
    13e0:	86 e1       	ldi	r24, 0x16	; 22
    13e2:	0e 94 e2 00 	call	0x1c4	; 0x1c4 <lcd_gotoxy>
		lcd_putc(5);
    13e6:	85 e0       	ldi	r24, 0x05	; 5
    13e8:	0e 94 f0 00 	call	0x1e0	; 0x1e0 <lcd_putc>
		lcd_gotoxy(23,0);
    13ec:	60 e0       	ldi	r22, 0x00	; 0
    13ee:	87 e1       	ldi	r24, 0x17	; 23
    13f0:	0e 94 e2 00 	call	0x1c4	; 0x1c4 <lcd_gotoxy>
		lcd_putc(5);
    13f4:	85 e0       	ldi	r24, 0x05	; 5
    13f6:	0e 94 f0 00 	call	0x1e0	; 0x1e0 <lcd_putc>
		lcd_gotoxy(24,0);
    13fa:	60 e0       	ldi	r22, 0x00	; 0
    13fc:	88 e1       	ldi	r24, 0x18	; 24
    13fe:	0e 94 e2 00 	call	0x1c4	; 0x1c4 <lcd_gotoxy>
		lcd_putc(5);
    1402:	85 e0       	ldi	r24, 0x05	; 5
    1404:	0e 94 f0 00 	call	0x1e0	; 0x1e0 <lcd_putc>
		lcd_gotoxy(25,0);
    1408:	60 e0       	ldi	r22, 0x00	; 0
    140a:	89 e1       	ldi	r24, 0x19	; 25
    140c:	0e 94 e2 00 	call	0x1c4	; 0x1c4 <lcd_gotoxy>
		lcd_putc(5);
    1410:	85 e0       	ldi	r24, 0x05	; 5
    1412:	0e 94 f0 00 	call	0x1e0	; 0x1e0 <lcd_putc>
		lcd_gotoxy(26,0);
    1416:	60 e0       	ldi	r22, 0x00	; 0
    1418:	8a e1       	ldi	r24, 0x1A	; 26
    141a:	0e 94 e2 00 	call	0x1c4	; 0x1c4 <lcd_gotoxy>
		lcd_putc(5);
    141e:	85 e0       	ldi	r24, 0x05	; 5
    1420:	0e 94 f0 00 	call	0x1e0	; 0x1e0 <lcd_putc>
		lcd_gotoxy(27,0);
    1424:	60 e0       	ldi	r22, 0x00	; 0
    1426:	8b e1       	ldi	r24, 0x1B	; 27
    1428:	0e 94 e2 00 	call	0x1c4	; 0x1c4 <lcd_gotoxy>
		lcd_putc(5);
    142c:	85 e0       	ldi	r24, 0x05	; 5
    142e:	0e 94 f0 00 	call	0x1e0	; 0x1e0 <lcd_putc>
		lcd_gotoxy(28,0);
    1432:	60 e0       	ldi	r22, 0x00	; 0
    1434:	8c e1       	ldi	r24, 0x1C	; 28
    1436:	0e 94 e2 00 	call	0x1c4	; 0x1c4 <lcd_gotoxy>
		lcd_putc(2);
    143a:	82 e0       	ldi	r24, 0x02	; 2
    143c:	0e 94 f0 00 	call	0x1e0	; 0x1e0 <lcd_putc>
		lcd_gotoxy(29,0);
    1440:	60 e0       	ldi	r22, 0x00	; 0
    1442:	8d e1       	ldi	r24, 0x1D	; 29
    1444:	0e 94 e2 00 	call	0x1c4	; 0x1c4 <lcd_gotoxy>
		lcd_puts("            ");
    1448:	83 ee       	ldi	r24, 0xE3	; 227
    144a:	91 e0       	ldi	r25, 0x01	; 1
    144c:	0e 94 f4 00 	call	0x1e8	; 0x1e8 <lcd_puts>
    1450:	08 95       	ret
	}
	else if (distance<=90 && distance>80)
    1452:	9c 01       	movw	r18, r24
    1454:	21 55       	subi	r18, 0x51	; 81
    1456:	31 09       	sbc	r19, r1
    1458:	2a 30       	cpi	r18, 0x0A	; 10
    145a:	31 05       	cpc	r19, r1
    145c:	08 f0       	brcs	.+2      	; 0x1460 <__stack+0xb61>
    145e:	48 c0       	rjmp	.+144    	; 0x14f0 <__stack+0xbf1>
	{
		lcd_gotoxy(20,0);
    1460:	60 e0       	ldi	r22, 0x00	; 0
    1462:	84 e1       	ldi	r24, 0x14	; 20
    1464:	0e 94 e2 00 	call	0x1c4	; 0x1c4 <lcd_gotoxy>
		lcd_putc(5);
    1468:	85 e0       	ldi	r24, 0x05	; 5
    146a:	0e 94 f0 00 	call	0x1e0	; 0x1e0 <lcd_putc>
		lcd_gotoxy(21,0);
    146e:	60 e0       	ldi	r22, 0x00	; 0
    1470:	85 e1       	ldi	r24, 0x15	; 21
    1472:	0e 94 e2 00 	call	0x1c4	; 0x1c4 <lcd_gotoxy>
		lcd_putc(5);
    1476:	85 e0       	ldi	r24, 0x05	; 5
    1478:	0e 94 f0 00 	call	0x1e0	; 0x1e0 <lcd_putc>
		lcd_gotoxy(22,0);
    147c:	60 e0       	ldi	r22, 0x00	; 0
    147e:	86 e1       	ldi	r24, 0x16	; 22
    1480:	0e 94 e2 00 	call	0x1c4	; 0x1c4 <lcd_gotoxy>
		lcd_putc(5);
    1484:	85 e0       	ldi	r24, 0x05	; 5
    1486:	0e 94 f0 00 	call	0x1e0	; 0x1e0 <lcd_putc>
		lcd_gotoxy(23,0);
    148a:	60 e0       	ldi	r22, 0x00	; 0
    148c:	87 e1       	ldi	r24, 0x17	; 23
    148e:	0e 94 e2 00 	call	0x1c4	; 0x1c4 <lcd_gotoxy>
		lcd_putc(5);
    1492:	85 e0       	ldi	r24, 0x05	; 5
    1494:	0e 94 f0 00 	call	0x1e0	; 0x1e0 <lcd_putc>
		lcd_gotoxy(24,0);
    1498:	60 e0       	ldi	r22, 0x00	; 0
    149a:	88 e1       	ldi	r24, 0x18	; 24
    149c:	0e 94 e2 00 	call	0x1c4	; 0x1c4 <lcd_gotoxy>
		lcd_putc(5);
    14a0:	85 e0       	ldi	r24, 0x05	; 5
    14a2:	0e 94 f0 00 	call	0x1e0	; 0x1e0 <lcd_putc>
		lcd_gotoxy(25,0);
    14a6:	60 e0       	ldi	r22, 0x00	; 0
    14a8:	89 e1       	ldi	r24, 0x19	; 25
    14aa:	0e 94 e2 00 	call	0x1c4	; 0x1c4 <lcd_gotoxy>
		lcd_putc(5);
    14ae:	85 e0       	ldi	r24, 0x05	; 5
    14b0:	0e 94 f0 00 	call	0x1e0	; 0x1e0 <lcd_putc>
		lcd_gotoxy(26,0);
    14b4:	60 e0       	ldi	r22, 0x00	; 0
    14b6:	8a e1       	ldi	r24, 0x1A	; 26
    14b8:	0e 94 e2 00 	call	0x1c4	; 0x1c4 <lcd_gotoxy>
		lcd_putc(5);
    14bc:	85 e0       	ldi	r24, 0x05	; 5
    14be:	0e 94 f0 00 	call	0x1e0	; 0x1e0 <lcd_putc>
		lcd_gotoxy(27,0);
    14c2:	60 e0       	ldi	r22, 0x00	; 0
    14c4:	8b e1       	ldi	r24, 0x1B	; 27
    14c6:	0e 94 e2 00 	call	0x1c4	; 0x1c4 <lcd_gotoxy>
		lcd_putc(5);
    14ca:	85 e0       	ldi	r24, 0x05	; 5
    14cc:	0e 94 f0 00 	call	0x1e0	; 0x1e0 <lcd_putc>
		lcd_gotoxy(28,0);
    14d0:	60 e0       	ldi	r22, 0x00	; 0
    14d2:	8c e1       	ldi	r24, 0x1C	; 28
    14d4:	0e 94 e2 00 	call	0x1c4	; 0x1c4 <lcd_gotoxy>
		lcd_putc(3);
    14d8:	83 e0       	ldi	r24, 0x03	; 3
    14da:	0e 94 f0 00 	call	0x1e0	; 0x1e0 <lcd_putc>
		lcd_gotoxy(29,0);
    14de:	60 e0       	ldi	r22, 0x00	; 0
    14e0:	8d e1       	ldi	r24, 0x1D	; 29
    14e2:	0e 94 e2 00 	call	0x1c4	; 0x1c4 <lcd_gotoxy>
		lcd_puts("            ");
    14e6:	83 ee       	ldi	r24, 0xE3	; 227
    14e8:	91 e0       	ldi	r25, 0x01	; 1
    14ea:	0e 94 f4 00 	call	0x1e8	; 0x1e8 <lcd_puts>
    14ee:	08 95       	ret
	}
	else if (distance<=80 && distance>70)
    14f0:	9c 01       	movw	r18, r24
    14f2:	27 54       	subi	r18, 0x47	; 71
    14f4:	31 09       	sbc	r19, r1
    14f6:	2a 30       	cpi	r18, 0x0A	; 10
    14f8:	31 05       	cpc	r19, r1
    14fa:	08 f0       	brcs	.+2      	; 0x14fe <__stack+0xbff>
    14fc:	48 c0       	rjmp	.+144    	; 0x158e <__stack+0xc8f>
	{
		lcd_gotoxy(20,0);
    14fe:	60 e0       	ldi	r22, 0x00	; 0
    1500:	84 e1       	ldi	r24, 0x14	; 20
    1502:	0e 94 e2 00 	call	0x1c4	; 0x1c4 <lcd_gotoxy>
		lcd_putc(5);
    1506:	85 e0       	ldi	r24, 0x05	; 5
    1508:	0e 94 f0 00 	call	0x1e0	; 0x1e0 <lcd_putc>
		lcd_gotoxy(21,0);
    150c:	60 e0       	ldi	r22, 0x00	; 0
    150e:	85 e1       	ldi	r24, 0x15	; 21
    1510:	0e 94 e2 00 	call	0x1c4	; 0x1c4 <lcd_gotoxy>
		lcd_putc(5);
    1514:	85 e0       	ldi	r24, 0x05	; 5
    1516:	0e 94 f0 00 	call	0x1e0	; 0x1e0 <lcd_putc>
		lcd_gotoxy(22,0);
    151a:	60 e0       	ldi	r22, 0x00	; 0
    151c:	86 e1       	ldi	r24, 0x16	; 22
    151e:	0e 94 e2 00 	call	0x1c4	; 0x1c4 <lcd_gotoxy>
		lcd_putc(5);
    1522:	85 e0       	ldi	r24, 0x05	; 5
    1524:	0e 94 f0 00 	call	0x1e0	; 0x1e0 <lcd_putc>
		lcd_gotoxy(23,0);
    1528:	60 e0       	ldi	r22, 0x00	; 0
    152a:	87 e1       	ldi	r24, 0x17	; 23
    152c:	0e 94 e2 00 	call	0x1c4	; 0x1c4 <lcd_gotoxy>
		lcd_putc(5);
    1530:	85 e0       	ldi	r24, 0x05	; 5
    1532:	0e 94 f0 00 	call	0x1e0	; 0x1e0 <lcd_putc>
		lcd_gotoxy(24,0);
    1536:	60 e0       	ldi	r22, 0x00	; 0
    1538:	88 e1       	ldi	r24, 0x18	; 24
    153a:	0e 94 e2 00 	call	0x1c4	; 0x1c4 <lcd_gotoxy>
		lcd_putc(5);
    153e:	85 e0       	ldi	r24, 0x05	; 5
    1540:	0e 94 f0 00 	call	0x1e0	; 0x1e0 <lcd_putc>
		lcd_gotoxy(25,0);
    1544:	60 e0       	ldi	r22, 0x00	; 0
    1546:	89 e1       	ldi	r24, 0x19	; 25
    1548:	0e 94 e2 00 	call	0x1c4	; 0x1c4 <lcd_gotoxy>
		lcd_putc(5);
    154c:	85 e0       	ldi	r24, 0x05	; 5
    154e:	0e 94 f0 00 	call	0x1e0	; 0x1e0 <lcd_putc>
		lcd_gotoxy(26,0);
    1552:	60 e0       	ldi	r22, 0x00	; 0
    1554:	8a e1       	ldi	r24, 0x1A	; 26
    1556:	0e 94 e2 00 	call	0x1c4	; 0x1c4 <lcd_gotoxy>
		lcd_putc(5);
    155a:	85 e0       	ldi	r24, 0x05	; 5
    155c:	0e 94 f0 00 	call	0x1e0	; 0x1e0 <lcd_putc>
		lcd_gotoxy(27,0);
    1560:	60 e0       	ldi	r22, 0x00	; 0
    1562:	8b e1       	ldi	r24, 0x1B	; 27
    1564:	0e 94 e2 00 	call	0x1c4	; 0x1c4 <lcd_gotoxy>
		lcd_putc(5);
    1568:	85 e0       	ldi	r24, 0x05	; 5
    156a:	0e 94 f0 00 	call	0x1e0	; 0x1e0 <lcd_putc>
		lcd_gotoxy(28,0);
    156e:	60 e0       	ldi	r22, 0x00	; 0
    1570:	8c e1       	ldi	r24, 0x1C	; 28
    1572:	0e 94 e2 00 	call	0x1c4	; 0x1c4 <lcd_gotoxy>
		lcd_putc(4);
    1576:	84 e0       	ldi	r24, 0x04	; 4
    1578:	0e 94 f0 00 	call	0x1e0	; 0x1e0 <lcd_putc>
		lcd_gotoxy(29,0);
    157c:	60 e0       	ldi	r22, 0x00	; 0
    157e:	8d e1       	ldi	r24, 0x1D	; 29
    1580:	0e 94 e2 00 	call	0x1c4	; 0x1c4 <lcd_gotoxy>
		lcd_puts("            ");
    1584:	83 ee       	ldi	r24, 0xE3	; 227
    1586:	91 e0       	ldi	r25, 0x01	; 1
    1588:	0e 94 f4 00 	call	0x1e8	; 0x1e8 <lcd_puts>
    158c:	08 95       	ret
	}
	else if (distance<=70 && distance>60)
    158e:	9c 01       	movw	r18, r24
    1590:	2d 53       	subi	r18, 0x3D	; 61
    1592:	31 09       	sbc	r19, r1
    1594:	2a 30       	cpi	r18, 0x0A	; 10
    1596:	31 05       	cpc	r19, r1
    1598:	08 f0       	brcs	.+2      	; 0x159c <__stack+0xc9d>
    159a:	48 c0       	rjmp	.+144    	; 0x162c <__stack+0xd2d>
	{
		lcd_gotoxy(20,0);
    159c:	60 e0       	ldi	r22, 0x00	; 0
    159e:	84 e1       	ldi	r24, 0x14	; 20
    15a0:	0e 94 e2 00 	call	0x1c4	; 0x1c4 <lcd_gotoxy>
		lcd_putc(5);
    15a4:	85 e0       	ldi	r24, 0x05	; 5
    15a6:	0e 94 f0 00 	call	0x1e0	; 0x1e0 <lcd_putc>
		lcd_gotoxy(21,0);
    15aa:	60 e0       	ldi	r22, 0x00	; 0
    15ac:	85 e1       	ldi	r24, 0x15	; 21
    15ae:	0e 94 e2 00 	call	0x1c4	; 0x1c4 <lcd_gotoxy>
		lcd_putc(5);
    15b2:	85 e0       	ldi	r24, 0x05	; 5
    15b4:	0e 94 f0 00 	call	0x1e0	; 0x1e0 <lcd_putc>
		lcd_gotoxy(22,0);
    15b8:	60 e0       	ldi	r22, 0x00	; 0
    15ba:	86 e1       	ldi	r24, 0x16	; 22
    15bc:	0e 94 e2 00 	call	0x1c4	; 0x1c4 <lcd_gotoxy>
		lcd_putc(5);
    15c0:	85 e0       	ldi	r24, 0x05	; 5
    15c2:	0e 94 f0 00 	call	0x1e0	; 0x1e0 <lcd_putc>
		lcd_gotoxy(23,0);
    15c6:	60 e0       	ldi	r22, 0x00	; 0
    15c8:	87 e1       	ldi	r24, 0x17	; 23
    15ca:	0e 94 e2 00 	call	0x1c4	; 0x1c4 <lcd_gotoxy>
		lcd_putc(5);
    15ce:	85 e0       	ldi	r24, 0x05	; 5
    15d0:	0e 94 f0 00 	call	0x1e0	; 0x1e0 <lcd_putc>
		lcd_gotoxy(24,0);
    15d4:	60 e0       	ldi	r22, 0x00	; 0
    15d6:	88 e1       	ldi	r24, 0x18	; 24
    15d8:	0e 94 e2 00 	call	0x1c4	; 0x1c4 <lcd_gotoxy>
		lcd_putc(5);
    15dc:	85 e0       	ldi	r24, 0x05	; 5
    15de:	0e 94 f0 00 	call	0x1e0	; 0x1e0 <lcd_putc>
		lcd_gotoxy(25,0);
    15e2:	60 e0       	ldi	r22, 0x00	; 0
    15e4:	89 e1       	ldi	r24, 0x19	; 25
    15e6:	0e 94 e2 00 	call	0x1c4	; 0x1c4 <lcd_gotoxy>
		lcd_putc(5);
    15ea:	85 e0       	ldi	r24, 0x05	; 5
    15ec:	0e 94 f0 00 	call	0x1e0	; 0x1e0 <lcd_putc>
		lcd_gotoxy(26,0);
    15f0:	60 e0       	ldi	r22, 0x00	; 0
    15f2:	8a e1       	ldi	r24, 0x1A	; 26
    15f4:	0e 94 e2 00 	call	0x1c4	; 0x1c4 <lcd_gotoxy>
		lcd_putc(5);
    15f8:	85 e0       	ldi	r24, 0x05	; 5
    15fa:	0e 94 f0 00 	call	0x1e0	; 0x1e0 <lcd_putc>
		lcd_gotoxy(27,0);
    15fe:	60 e0       	ldi	r22, 0x00	; 0
    1600:	8b e1       	ldi	r24, 0x1B	; 27
    1602:	0e 94 e2 00 	call	0x1c4	; 0x1c4 <lcd_gotoxy>
		lcd_putc(5);
    1606:	85 e0       	ldi	r24, 0x05	; 5
    1608:	0e 94 f0 00 	call	0x1e0	; 0x1e0 <lcd_putc>
		lcd_gotoxy(28,0);
    160c:	60 e0       	ldi	r22, 0x00	; 0
    160e:	8c e1       	ldi	r24, 0x1C	; 28
    1610:	0e 94 e2 00 	call	0x1c4	; 0x1c4 <lcd_gotoxy>
		lcd_putc(5);
    1614:	85 e0       	ldi	r24, 0x05	; 5
    1616:	0e 94 f0 00 	call	0x1e0	; 0x1e0 <lcd_putc>
		lcd_gotoxy(29,0);
    161a:	60 e0       	ldi	r22, 0x00	; 0
    161c:	8d e1       	ldi	r24, 0x1D	; 29
    161e:	0e 94 e2 00 	call	0x1c4	; 0x1c4 <lcd_gotoxy>
		lcd_puts("            ");
    1622:	83 ee       	ldi	r24, 0xE3	; 227
    1624:	91 e0       	ldi	r25, 0x01	; 1
    1626:	0e 94 f4 00 	call	0x1e8	; 0x1e8 <lcd_puts>
    162a:	08 95       	ret
	}
	else if (distance<=60 && distance>50)
    162c:	9c 01       	movw	r18, r24
    162e:	23 53       	subi	r18, 0x33	; 51
    1630:	31 09       	sbc	r19, r1
    1632:	2a 30       	cpi	r18, 0x0A	; 10
    1634:	31 05       	cpc	r19, r1
    1636:	08 f0       	brcs	.+2      	; 0x163a <__stack+0xd3b>
    1638:	4f c0       	rjmp	.+158    	; 0x16d8 <__stack+0xdd9>
	{
		lcd_gotoxy(20,0);
    163a:	60 e0       	ldi	r22, 0x00	; 0
    163c:	84 e1       	ldi	r24, 0x14	; 20
    163e:	0e 94 e2 00 	call	0x1c4	; 0x1c4 <lcd_gotoxy>
		lcd_putc(5);
    1642:	85 e0       	ldi	r24, 0x05	; 5
    1644:	0e 94 f0 00 	call	0x1e0	; 0x1e0 <lcd_putc>
		lcd_gotoxy(21,0);
    1648:	60 e0       	ldi	r22, 0x00	; 0
    164a:	85 e1       	ldi	r24, 0x15	; 21
    164c:	0e 94 e2 00 	call	0x1c4	; 0x1c4 <lcd_gotoxy>
		lcd_putc(5);
    1650:	85 e0       	ldi	r24, 0x05	; 5
    1652:	0e 94 f0 00 	call	0x1e0	; 0x1e0 <lcd_putc>
		lcd_gotoxy(22,0);
    1656:	60 e0       	ldi	r22, 0x00	; 0
    1658:	86 e1       	ldi	r24, 0x16	; 22
    165a:	0e 94 e2 00 	call	0x1c4	; 0x1c4 <lcd_gotoxy>
		lcd_putc(5);
    165e:	85 e0       	ldi	r24, 0x05	; 5
    1660:	0e 94 f0 00 	call	0x1e0	; 0x1e0 <lcd_putc>
		lcd_gotoxy(23,0);
    1664:	60 e0       	ldi	r22, 0x00	; 0
    1666:	87 e1       	ldi	r24, 0x17	; 23
    1668:	0e 94 e2 00 	call	0x1c4	; 0x1c4 <lcd_gotoxy>
		lcd_putc(5);
    166c:	85 e0       	ldi	r24, 0x05	; 5
    166e:	0e 94 f0 00 	call	0x1e0	; 0x1e0 <lcd_putc>
		lcd_gotoxy(24,0);
    1672:	60 e0       	ldi	r22, 0x00	; 0
    1674:	88 e1       	ldi	r24, 0x18	; 24
    1676:	0e 94 e2 00 	call	0x1c4	; 0x1c4 <lcd_gotoxy>
		lcd_putc(5);
    167a:	85 e0       	ldi	r24, 0x05	; 5
    167c:	0e 94 f0 00 	call	0x1e0	; 0x1e0 <lcd_putc>
		lcd_gotoxy(25,0);
    1680:	60 e0       	ldi	r22, 0x00	; 0
    1682:	89 e1       	ldi	r24, 0x19	; 25
    1684:	0e 94 e2 00 	call	0x1c4	; 0x1c4 <lcd_gotoxy>
		lcd_putc(5);
    1688:	85 e0       	ldi	r24, 0x05	; 5
    168a:	0e 94 f0 00 	call	0x1e0	; 0x1e0 <lcd_putc>
		lcd_gotoxy(26,0);
    168e:	60 e0       	ldi	r22, 0x00	; 0
    1690:	8a e1       	ldi	r24, 0x1A	; 26
    1692:	0e 94 e2 00 	call	0x1c4	; 0x1c4 <lcd_gotoxy>
		lcd_putc(5);
    1696:	85 e0       	ldi	r24, 0x05	; 5
    1698:	0e 94 f0 00 	call	0x1e0	; 0x1e0 <lcd_putc>
		lcd_gotoxy(27,0);
    169c:	60 e0       	ldi	r22, 0x00	; 0
    169e:	8b e1       	ldi	r24, 0x1B	; 27
    16a0:	0e 94 e2 00 	call	0x1c4	; 0x1c4 <lcd_gotoxy>
		lcd_putc(5);
    16a4:	85 e0       	ldi	r24, 0x05	; 5
    16a6:	0e 94 f0 00 	call	0x1e0	; 0x1e0 <lcd_putc>
		lcd_gotoxy(28,0);
    16aa:	60 e0       	ldi	r22, 0x00	; 0
    16ac:	8c e1       	ldi	r24, 0x1C	; 28
    16ae:	0e 94 e2 00 	call	0x1c4	; 0x1c4 <lcd_gotoxy>
		lcd_putc(5);
    16b2:	85 e0       	ldi	r24, 0x05	; 5
    16b4:	0e 94 f0 00 	call	0x1e0	; 0x1e0 <lcd_putc>
		lcd_gotoxy(29,0);
    16b8:	60 e0       	ldi	r22, 0x00	; 0
    16ba:	8d e1       	ldi	r24, 0x1D	; 29
    16bc:	0e 94 e2 00 	call	0x1c4	; 0x1c4 <lcd_gotoxy>
		lcd_putc(1);
    16c0:	81 e0       	ldi	r24, 0x01	; 1
    16c2:	0e 94 f0 00 	call	0x1e0	; 0x1e0 <lcd_putc>
		lcd_gotoxy(30,0);
    16c6:	60 e0       	ldi	r22, 0x00	; 0
    16c8:	8e e1       	ldi	r24, 0x1E	; 30
    16ca:	0e 94 e2 00 	call	0x1c4	; 0x1c4 <lcd_gotoxy>
		lcd_puts("           ");
    16ce:	84 ee       	ldi	r24, 0xE4	; 228
    16d0:	91 e0       	ldi	r25, 0x01	; 1
    16d2:	0e 94 f4 00 	call	0x1e8	; 0x1e8 <lcd_puts>
    16d6:	08 95       	ret
	}
	else if (distance<=50 && distance>40)
    16d8:	9c 01       	movw	r18, r24
    16da:	29 52       	subi	r18, 0x29	; 41
    16dc:	31 09       	sbc	r19, r1
    16de:	2a 30       	cpi	r18, 0x0A	; 10
    16e0:	31 05       	cpc	r19, r1
    16e2:	08 f0       	brcs	.+2      	; 0x16e6 <__stack+0xde7>
    16e4:	4f c0       	rjmp	.+158    	; 0x1784 <__stack+0xe85>
	{
		lcd_gotoxy(20,0);
    16e6:	60 e0       	ldi	r22, 0x00	; 0
    16e8:	84 e1       	ldi	r24, 0x14	; 20
    16ea:	0e 94 e2 00 	call	0x1c4	; 0x1c4 <lcd_gotoxy>
		lcd_putc(5);
    16ee:	85 e0       	ldi	r24, 0x05	; 5
    16f0:	0e 94 f0 00 	call	0x1e0	; 0x1e0 <lcd_putc>
		lcd_gotoxy(21,0);
    16f4:	60 e0       	ldi	r22, 0x00	; 0
    16f6:	85 e1       	ldi	r24, 0x15	; 21
    16f8:	0e 94 e2 00 	call	0x1c4	; 0x1c4 <lcd_gotoxy>
		lcd_putc(5);
    16fc:	85 e0       	ldi	r24, 0x05	; 5
    16fe:	0e 94 f0 00 	call	0x1e0	; 0x1e0 <lcd_putc>
		lcd_gotoxy(22,0);
    1702:	60 e0       	ldi	r22, 0x00	; 0
    1704:	86 e1       	ldi	r24, 0x16	; 22
    1706:	0e 94 e2 00 	call	0x1c4	; 0x1c4 <lcd_gotoxy>
		lcd_putc(5);
    170a:	85 e0       	ldi	r24, 0x05	; 5
    170c:	0e 94 f0 00 	call	0x1e0	; 0x1e0 <lcd_putc>
		lcd_gotoxy(23,0);
    1710:	60 e0       	ldi	r22, 0x00	; 0
    1712:	87 e1       	ldi	r24, 0x17	; 23
    1714:	0e 94 e2 00 	call	0x1c4	; 0x1c4 <lcd_gotoxy>
		lcd_putc(5);
    1718:	85 e0       	ldi	r24, 0x05	; 5
    171a:	0e 94 f0 00 	call	0x1e0	; 0x1e0 <lcd_putc>
		lcd_gotoxy(24,0);
    171e:	60 e0       	ldi	r22, 0x00	; 0
    1720:	88 e1       	ldi	r24, 0x18	; 24
    1722:	0e 94 e2 00 	call	0x1c4	; 0x1c4 <lcd_gotoxy>
		lcd_putc(5);
    1726:	85 e0       	ldi	r24, 0x05	; 5
    1728:	0e 94 f0 00 	call	0x1e0	; 0x1e0 <lcd_putc>
		lcd_gotoxy(25,0);
    172c:	60 e0       	ldi	r22, 0x00	; 0
    172e:	89 e1       	ldi	r24, 0x19	; 25
    1730:	0e 94 e2 00 	call	0x1c4	; 0x1c4 <lcd_gotoxy>
		lcd_putc(5);
    1734:	85 e0       	ldi	r24, 0x05	; 5
    1736:	0e 94 f0 00 	call	0x1e0	; 0x1e0 <lcd_putc>
		lcd_gotoxy(26,0);
    173a:	60 e0       	ldi	r22, 0x00	; 0
    173c:	8a e1       	ldi	r24, 0x1A	; 26
    173e:	0e 94 e2 00 	call	0x1c4	; 0x1c4 <lcd_gotoxy>
		lcd_putc(5);
    1742:	85 e0       	ldi	r24, 0x05	; 5
    1744:	0e 94 f0 00 	call	0x1e0	; 0x1e0 <lcd_putc>
		lcd_gotoxy(27,0);
    1748:	60 e0       	ldi	r22, 0x00	; 0
    174a:	8b e1       	ldi	r24, 0x1B	; 27
    174c:	0e 94 e2 00 	call	0x1c4	; 0x1c4 <lcd_gotoxy>
		lcd_putc(5);
    1750:	85 e0       	ldi	r24, 0x05	; 5
    1752:	0e 94 f0 00 	call	0x1e0	; 0x1e0 <lcd_putc>
		lcd_gotoxy(28,0);
    1756:	60 e0       	ldi	r22, 0x00	; 0
    1758:	8c e1       	ldi	r24, 0x1C	; 28
    175a:	0e 94 e2 00 	call	0x1c4	; 0x1c4 <lcd_gotoxy>
		lcd_putc(5);
    175e:	85 e0       	ldi	r24, 0x05	; 5
    1760:	0e 94 f0 00 	call	0x1e0	; 0x1e0 <lcd_putc>
		lcd_gotoxy(29,0);
    1764:	60 e0       	ldi	r22, 0x00	; 0
    1766:	8d e1       	ldi	r24, 0x1D	; 29
    1768:	0e 94 e2 00 	call	0x1c4	; 0x1c4 <lcd_gotoxy>
		lcd_putc(2);
    176c:	82 e0       	ldi	r24, 0x02	; 2
    176e:	0e 94 f0 00 	call	0x1e0	; 0x1e0 <lcd_putc>
		lcd_gotoxy(30,0);
    1772:	60 e0       	ldi	r22, 0x00	; 0
    1774:	8e e1       	ldi	r24, 0x1E	; 30
    1776:	0e 94 e2 00 	call	0x1c4	; 0x1c4 <lcd_gotoxy>
		lcd_puts("           ");
    177a:	84 ee       	ldi	r24, 0xE4	; 228
    177c:	91 e0       	ldi	r25, 0x01	; 1
    177e:	0e 94 f4 00 	call	0x1e8	; 0x1e8 <lcd_puts>
    1782:	08 95       	ret
	}
	else if (distance<=40 && distance>30)
    1784:	9c 01       	movw	r18, r24
    1786:	2f 51       	subi	r18, 0x1F	; 31
    1788:	31 09       	sbc	r19, r1
    178a:	2a 30       	cpi	r18, 0x0A	; 10
    178c:	31 05       	cpc	r19, r1
    178e:	08 f0       	brcs	.+2      	; 0x1792 <__stack+0xe93>
    1790:	4f c0       	rjmp	.+158    	; 0x1830 <__stack+0xf31>
	{
		lcd_gotoxy(20,0);
    1792:	60 e0       	ldi	r22, 0x00	; 0
    1794:	84 e1       	ldi	r24, 0x14	; 20
    1796:	0e 94 e2 00 	call	0x1c4	; 0x1c4 <lcd_gotoxy>
		lcd_putc(5);
    179a:	85 e0       	ldi	r24, 0x05	; 5
    179c:	0e 94 f0 00 	call	0x1e0	; 0x1e0 <lcd_putc>
		lcd_gotoxy(21,0);
    17a0:	60 e0       	ldi	r22, 0x00	; 0
    17a2:	85 e1       	ldi	r24, 0x15	; 21
    17a4:	0e 94 e2 00 	call	0x1c4	; 0x1c4 <lcd_gotoxy>
		lcd_putc(5);
    17a8:	85 e0       	ldi	r24, 0x05	; 5
    17aa:	0e 94 f0 00 	call	0x1e0	; 0x1e0 <lcd_putc>
		lcd_gotoxy(22,0);
    17ae:	60 e0       	ldi	r22, 0x00	; 0
    17b0:	86 e1       	ldi	r24, 0x16	; 22
    17b2:	0e 94 e2 00 	call	0x1c4	; 0x1c4 <lcd_gotoxy>
		lcd_putc(5);
    17b6:	85 e0       	ldi	r24, 0x05	; 5
    17b8:	0e 94 f0 00 	call	0x1e0	; 0x1e0 <lcd_putc>
		lcd_gotoxy(23,0);
    17bc:	60 e0       	ldi	r22, 0x00	; 0
    17be:	87 e1       	ldi	r24, 0x17	; 23
    17c0:	0e 94 e2 00 	call	0x1c4	; 0x1c4 <lcd_gotoxy>
		lcd_putc(5);
    17c4:	85 e0       	ldi	r24, 0x05	; 5
    17c6:	0e 94 f0 00 	call	0x1e0	; 0x1e0 <lcd_putc>
		lcd_gotoxy(24,0);
    17ca:	60 e0       	ldi	r22, 0x00	; 0
    17cc:	88 e1       	ldi	r24, 0x18	; 24
    17ce:	0e 94 e2 00 	call	0x1c4	; 0x1c4 <lcd_gotoxy>
		lcd_putc(5);
    17d2:	85 e0       	ldi	r24, 0x05	; 5
    17d4:	0e 94 f0 00 	call	0x1e0	; 0x1e0 <lcd_putc>
		lcd_gotoxy(25,0);
    17d8:	60 e0       	ldi	r22, 0x00	; 0
    17da:	89 e1       	ldi	r24, 0x19	; 25
    17dc:	0e 94 e2 00 	call	0x1c4	; 0x1c4 <lcd_gotoxy>
		lcd_putc(5);
    17e0:	85 e0       	ldi	r24, 0x05	; 5
    17e2:	0e 94 f0 00 	call	0x1e0	; 0x1e0 <lcd_putc>
		lcd_gotoxy(26,0);
    17e6:	60 e0       	ldi	r22, 0x00	; 0
    17e8:	8a e1       	ldi	r24, 0x1A	; 26
    17ea:	0e 94 e2 00 	call	0x1c4	; 0x1c4 <lcd_gotoxy>
		lcd_putc(5);
    17ee:	85 e0       	ldi	r24, 0x05	; 5
    17f0:	0e 94 f0 00 	call	0x1e0	; 0x1e0 <lcd_putc>
		lcd_gotoxy(27,0);
    17f4:	60 e0       	ldi	r22, 0x00	; 0
    17f6:	8b e1       	ldi	r24, 0x1B	; 27
    17f8:	0e 94 e2 00 	call	0x1c4	; 0x1c4 <lcd_gotoxy>
		lcd_putc(5);
    17fc:	85 e0       	ldi	r24, 0x05	; 5
    17fe:	0e 94 f0 00 	call	0x1e0	; 0x1e0 <lcd_putc>
		lcd_gotoxy(28,0);
    1802:	60 e0       	ldi	r22, 0x00	; 0
    1804:	8c e1       	ldi	r24, 0x1C	; 28
    1806:	0e 94 e2 00 	call	0x1c4	; 0x1c4 <lcd_gotoxy>
		lcd_putc(5);
    180a:	85 e0       	ldi	r24, 0x05	; 5
    180c:	0e 94 f0 00 	call	0x1e0	; 0x1e0 <lcd_putc>
		lcd_gotoxy(29,0);
    1810:	60 e0       	ldi	r22, 0x00	; 0
    1812:	8d e1       	ldi	r24, 0x1D	; 29
    1814:	0e 94 e2 00 	call	0x1c4	; 0x1c4 <lcd_gotoxy>
		lcd_putc(3);
    1818:	83 e0       	ldi	r24, 0x03	; 3
    181a:	0e 94 f0 00 	call	0x1e0	; 0x1e0 <lcd_putc>
		lcd_gotoxy(30,0);
    181e:	60 e0       	ldi	r22, 0x00	; 0
    1820:	8e e1       	ldi	r24, 0x1E	; 30
    1822:	0e 94 e2 00 	call	0x1c4	; 0x1c4 <lcd_gotoxy>
		lcd_puts("           ");
    1826:	84 ee       	ldi	r24, 0xE4	; 228
    1828:	91 e0       	ldi	r25, 0x01	; 1
    182a:	0e 94 f4 00 	call	0x1e8	; 0x1e8 <lcd_puts>
    182e:	08 95       	ret
	}
	else if (distance<=30 && distance>20)
    1830:	9c 01       	movw	r18, r24
    1832:	25 51       	subi	r18, 0x15	; 21
    1834:	31 09       	sbc	r19, r1
    1836:	2a 30       	cpi	r18, 0x0A	; 10
    1838:	31 05       	cpc	r19, r1
    183a:	08 f0       	brcs	.+2      	; 0x183e <__stack+0xf3f>
    183c:	4f c0       	rjmp	.+158    	; 0x18dc <__stack+0xfdd>
	{
		lcd_gotoxy(20,0);
    183e:	60 e0       	ldi	r22, 0x00	; 0
    1840:	84 e1       	ldi	r24, 0x14	; 20
    1842:	0e 94 e2 00 	call	0x1c4	; 0x1c4 <lcd_gotoxy>
		lcd_putc(5);
    1846:	85 e0       	ldi	r24, 0x05	; 5
    1848:	0e 94 f0 00 	call	0x1e0	; 0x1e0 <lcd_putc>
		lcd_gotoxy(21,0);
    184c:	60 e0       	ldi	r22, 0x00	; 0
    184e:	85 e1       	ldi	r24, 0x15	; 21
    1850:	0e 94 e2 00 	call	0x1c4	; 0x1c4 <lcd_gotoxy>
		lcd_putc(5);
    1854:	85 e0       	ldi	r24, 0x05	; 5
    1856:	0e 94 f0 00 	call	0x1e0	; 0x1e0 <lcd_putc>
		lcd_gotoxy(22,0);
    185a:	60 e0       	ldi	r22, 0x00	; 0
    185c:	86 e1       	ldi	r24, 0x16	; 22
    185e:	0e 94 e2 00 	call	0x1c4	; 0x1c4 <lcd_gotoxy>
		lcd_putc(5);
    1862:	85 e0       	ldi	r24, 0x05	; 5
    1864:	0e 94 f0 00 	call	0x1e0	; 0x1e0 <lcd_putc>
		lcd_gotoxy(23,0);
    1868:	60 e0       	ldi	r22, 0x00	; 0
    186a:	87 e1       	ldi	r24, 0x17	; 23
    186c:	0e 94 e2 00 	call	0x1c4	; 0x1c4 <lcd_gotoxy>
		lcd_putc(5);
    1870:	85 e0       	ldi	r24, 0x05	; 5
    1872:	0e 94 f0 00 	call	0x1e0	; 0x1e0 <lcd_putc>
		lcd_gotoxy(24,0);
    1876:	60 e0       	ldi	r22, 0x00	; 0
    1878:	88 e1       	ldi	r24, 0x18	; 24
    187a:	0e 94 e2 00 	call	0x1c4	; 0x1c4 <lcd_gotoxy>
		lcd_putc(5);
    187e:	85 e0       	ldi	r24, 0x05	; 5
    1880:	0e 94 f0 00 	call	0x1e0	; 0x1e0 <lcd_putc>
		lcd_gotoxy(25,0);
    1884:	60 e0       	ldi	r22, 0x00	; 0
    1886:	89 e1       	ldi	r24, 0x19	; 25
    1888:	0e 94 e2 00 	call	0x1c4	; 0x1c4 <lcd_gotoxy>
		lcd_putc(5);
    188c:	85 e0       	ldi	r24, 0x05	; 5
    188e:	0e 94 f0 00 	call	0x1e0	; 0x1e0 <lcd_putc>
		lcd_gotoxy(26,0);
    1892:	60 e0       	ldi	r22, 0x00	; 0
    1894:	8a e1       	ldi	r24, 0x1A	; 26
    1896:	0e 94 e2 00 	call	0x1c4	; 0x1c4 <lcd_gotoxy>
		lcd_putc(5);
    189a:	85 e0       	ldi	r24, 0x05	; 5
    189c:	0e 94 f0 00 	call	0x1e0	; 0x1e0 <lcd_putc>
		lcd_gotoxy(27,0);
    18a0:	60 e0       	ldi	r22, 0x00	; 0
    18a2:	8b e1       	ldi	r24, 0x1B	; 27
    18a4:	0e 94 e2 00 	call	0x1c4	; 0x1c4 <lcd_gotoxy>
		lcd_putc(5);
    18a8:	85 e0       	ldi	r24, 0x05	; 5
    18aa:	0e 94 f0 00 	call	0x1e0	; 0x1e0 <lcd_putc>
		lcd_gotoxy(28,0);
    18ae:	60 e0       	ldi	r22, 0x00	; 0
    18b0:	8c e1       	ldi	r24, 0x1C	; 28
    18b2:	0e 94 e2 00 	call	0x1c4	; 0x1c4 <lcd_gotoxy>
		lcd_putc(5);
    18b6:	85 e0       	ldi	r24, 0x05	; 5
    18b8:	0e 94 f0 00 	call	0x1e0	; 0x1e0 <lcd_putc>
		lcd_gotoxy(29,0);
    18bc:	60 e0       	ldi	r22, 0x00	; 0
    18be:	8d e1       	ldi	r24, 0x1D	; 29
    18c0:	0e 94 e2 00 	call	0x1c4	; 0x1c4 <lcd_gotoxy>
		lcd_putc(4);
    18c4:	84 e0       	ldi	r24, 0x04	; 4
    18c6:	0e 94 f0 00 	call	0x1e0	; 0x1e0 <lcd_putc>
		lcd_gotoxy(30,0);
    18ca:	60 e0       	ldi	r22, 0x00	; 0
    18cc:	8e e1       	ldi	r24, 0x1E	; 30
    18ce:	0e 94 e2 00 	call	0x1c4	; 0x1c4 <lcd_gotoxy>
		lcd_puts("           ");
    18d2:	84 ee       	ldi	r24, 0xE4	; 228
    18d4:	91 e0       	ldi	r25, 0x01	; 1
    18d6:	0e 94 f4 00 	call	0x1e8	; 0x1e8 <lcd_puts>
    18da:	08 95       	ret
	}
	else if (distance<=20)
    18dc:	45 97       	sbiw	r24, 0x15	; 21
    18de:	0c f0       	brlt	.+2      	; 0x18e2 <__stack+0xfe3>
    18e0:	4e c0       	rjmp	.+156    	; 0x197e <__stack+0x107f>
	{
		lcd_gotoxy(20,0);
    18e2:	60 e0       	ldi	r22, 0x00	; 0
    18e4:	84 e1       	ldi	r24, 0x14	; 20
    18e6:	0e 94 e2 00 	call	0x1c4	; 0x1c4 <lcd_gotoxy>
		lcd_putc(5);
    18ea:	85 e0       	ldi	r24, 0x05	; 5
    18ec:	0e 94 f0 00 	call	0x1e0	; 0x1e0 <lcd_putc>
		lcd_gotoxy(21,0);
    18f0:	60 e0       	ldi	r22, 0x00	; 0
    18f2:	85 e1       	ldi	r24, 0x15	; 21
    18f4:	0e 94 e2 00 	call	0x1c4	; 0x1c4 <lcd_gotoxy>
		lcd_putc(5);
    18f8:	85 e0       	ldi	r24, 0x05	; 5
    18fa:	0e 94 f0 00 	call	0x1e0	; 0x1e0 <lcd_putc>
		lcd_gotoxy(22,0);
    18fe:	60 e0       	ldi	r22, 0x00	; 0
    1900:	86 e1       	ldi	r24, 0x16	; 22
    1902:	0e 94 e2 00 	call	0x1c4	; 0x1c4 <lcd_gotoxy>
		lcd_putc(5);
    1906:	85 e0       	ldi	r24, 0x05	; 5
    1908:	0e 94 f0 00 	call	0x1e0	; 0x1e0 <lcd_putc>
		lcd_gotoxy(23,0);
    190c:	60 e0       	ldi	r22, 0x00	; 0
    190e:	87 e1       	ldi	r24, 0x17	; 23
    1910:	0e 94 e2 00 	call	0x1c4	; 0x1c4 <lcd_gotoxy>
		lcd_putc(5);
    1914:	85 e0       	ldi	r24, 0x05	; 5
    1916:	0e 94 f0 00 	call	0x1e0	; 0x1e0 <lcd_putc>
		lcd_gotoxy(24,0);
    191a:	60 e0       	ldi	r22, 0x00	; 0
    191c:	88 e1       	ldi	r24, 0x18	; 24
    191e:	0e 94 e2 00 	call	0x1c4	; 0x1c4 <lcd_gotoxy>
		lcd_putc(5);
    1922:	85 e0       	ldi	r24, 0x05	; 5
    1924:	0e 94 f0 00 	call	0x1e0	; 0x1e0 <lcd_putc>
		lcd_gotoxy(25,0);
    1928:	60 e0       	ldi	r22, 0x00	; 0
    192a:	89 e1       	ldi	r24, 0x19	; 25
    192c:	0e 94 e2 00 	call	0x1c4	; 0x1c4 <lcd_gotoxy>
		lcd_putc(5);
    1930:	85 e0       	ldi	r24, 0x05	; 5
    1932:	0e 94 f0 00 	call	0x1e0	; 0x1e0 <lcd_putc>
		lcd_gotoxy(26,0);
    1936:	60 e0       	ldi	r22, 0x00	; 0
    1938:	8a e1       	ldi	r24, 0x1A	; 26
    193a:	0e 94 e2 00 	call	0x1c4	; 0x1c4 <lcd_gotoxy>
		lcd_putc(5);
    193e:	85 e0       	ldi	r24, 0x05	; 5
    1940:	0e 94 f0 00 	call	0x1e0	; 0x1e0 <lcd_putc>
		lcd_gotoxy(27,0);
    1944:	60 e0       	ldi	r22, 0x00	; 0
    1946:	8b e1       	ldi	r24, 0x1B	; 27
    1948:	0e 94 e2 00 	call	0x1c4	; 0x1c4 <lcd_gotoxy>
		lcd_putc(5);
    194c:	85 e0       	ldi	r24, 0x05	; 5
    194e:	0e 94 f0 00 	call	0x1e0	; 0x1e0 <lcd_putc>
		lcd_gotoxy(28,0);
    1952:	60 e0       	ldi	r22, 0x00	; 0
    1954:	8c e1       	ldi	r24, 0x1C	; 28
    1956:	0e 94 e2 00 	call	0x1c4	; 0x1c4 <lcd_gotoxy>
		lcd_putc(5);
    195a:	85 e0       	ldi	r24, 0x05	; 5
    195c:	0e 94 f0 00 	call	0x1e0	; 0x1e0 <lcd_putc>
		lcd_gotoxy(29,0);
    1960:	60 e0       	ldi	r22, 0x00	; 0
    1962:	8d e1       	ldi	r24, 0x1D	; 29
    1964:	0e 94 e2 00 	call	0x1c4	; 0x1c4 <lcd_gotoxy>
		lcd_putc(5);
    1968:	85 e0       	ldi	r24, 0x05	; 5
    196a:	0e 94 f0 00 	call	0x1e0	; 0x1e0 <lcd_putc>
		lcd_gotoxy(30,0);
    196e:	60 e0       	ldi	r22, 0x00	; 0
    1970:	8e e1       	ldi	r24, 0x1E	; 30
    1972:	0e 94 e2 00 	call	0x1c4	; 0x1c4 <lcd_gotoxy>
		lcd_puts("           ");
    1976:	84 ee       	ldi	r24, 0xE4	; 228
    1978:	91 e0       	ldi	r25, 0x01	; 1
    197a:	0e 94 f4 00 	call	0x1e8	; 0x1e8 <lcd_puts>
    197e:	08 95       	ret

00001980 <pins_config>:

//initial configuration of pins
void pins_config(void)
{
	//configure LED pins as output
	GPIO_config_output(&DDRC,LED1);
    1980:	61 e0       	ldi	r22, 0x01	; 1
    1982:	87 e2       	ldi	r24, 0x27	; 39
    1984:	90 e0       	ldi	r25, 0x00	; 0
    1986:	0e 94 53 00 	call	0xa6	; 0xa6 <GPIO_config_output>
	GPIO_config_output(&DDRC,LED2);
    198a:	62 e0       	ldi	r22, 0x02	; 2
    198c:	87 e2       	ldi	r24, 0x27	; 39
    198e:	90 e0       	ldi	r25, 0x00	; 0
    1990:	0e 94 53 00 	call	0xa6	; 0xa6 <GPIO_config_output>
	GPIO_config_output(&DDRC,LED3);
    1994:	63 e0       	ldi	r22, 0x03	; 3
    1996:	87 e2       	ldi	r24, 0x27	; 39
    1998:	90 e0       	ldi	r25, 0x00	; 0
    199a:	0e 94 53 00 	call	0xa6	; 0xa6 <GPIO_config_output>
	GPIO_config_output(&DDRC,LED4);
    199e:	64 e0       	ldi	r22, 0x04	; 4
    19a0:	87 e2       	ldi	r24, 0x27	; 39
    19a2:	90 e0       	ldi	r25, 0x00	; 0
    19a4:	0e 94 53 00 	call	0xa6	; 0xa6 <GPIO_config_output>
	GPIO_config_output(&DDRC,LED5);
    19a8:	65 e0       	ldi	r22, 0x05	; 5
    19aa:	87 e2       	ldi	r24, 0x27	; 39
    19ac:	90 e0       	ldi	r25, 0x00	; 0
    19ae:	0e 94 53 00 	call	0xa6	; 0xa6 <GPIO_config_output>
	GPIO_config_output(&DDRC,LED_BLINK); // ??????????
    19b2:	60 e0       	ldi	r22, 0x00	; 0
    19b4:	87 e2       	ldi	r24, 0x27	; 39
    19b6:	90 e0       	ldi	r25, 0x00	; 0
    19b8:	0e 94 53 00 	call	0xa6	; 0xa6 <GPIO_config_output>
	
	//configure sound pin as output
	GPIO_config_output(&DDRB, alarm); 
    19bc:	64 e0       	ldi	r22, 0x04	; 4
    19be:	84 e2       	ldi	r24, 0x24	; 36
    19c0:	90 e0       	ldi	r25, 0x00	; 0
    19c2:	0e 94 53 00 	call	0xa6	; 0xa6 <GPIO_config_output>
	
	//configure echo pins as inputs without pull up resistor
	GPIO_config_input_nopull(&DDRD, Front_Echo);
    19c6:	63 e0       	ldi	r22, 0x03	; 3
    19c8:	8a e2       	ldi	r24, 0x2A	; 42
    19ca:	90 e0       	ldi	r25, 0x00	; 0
    19cc:	0e 94 5f 00 	call	0xbe	; 0xbe <GPIO_config_input_nopull>
	GPIO_config_input_nopull(&DDRD, Back_Echo);
    19d0:	62 e0       	ldi	r22, 0x02	; 2
    19d2:	8a e2       	ldi	r24, 0x2A	; 42
    19d4:	90 e0       	ldi	r25, 0x00	; 0
    19d6:	0e 94 5f 00 	call	0xbe	; 0xbe <GPIO_config_input_nopull>
		
	//configure trigger pins as outputs and set them to low
	GPIO_config_output(&DDRB, Front_trigger);
    19da:	63 e0       	ldi	r22, 0x03	; 3
    19dc:	84 e2       	ldi	r24, 0x24	; 36
    19de:	90 e0       	ldi	r25, 0x00	; 0
    19e0:	0e 94 53 00 	call	0xa6	; 0xa6 <GPIO_config_output>
	GPIO_config_output(&DDRB, Back_trigger);
    19e4:	62 e0       	ldi	r22, 0x02	; 2
    19e6:	84 e2       	ldi	r24, 0x24	; 36
    19e8:	90 e0       	ldi	r25, 0x00	; 0
    19ea:	0e 94 53 00 	call	0xa6	; 0xa6 <GPIO_config_output>
	GPIO_write_low(&PORTB, Front_trigger);
    19ee:	63 e0       	ldi	r22, 0x03	; 3
    19f0:	85 e2       	ldi	r24, 0x25	; 37
    19f2:	90 e0       	ldi	r25, 0x00	; 0
    19f4:	0e 94 70 00 	call	0xe0	; 0xe0 <GPIO_write_low>
	GPIO_write_low(&PORTB, Back_trigger);
    19f8:	62 e0       	ldi	r22, 0x02	; 2
    19fa:	85 e2       	ldi	r24, 0x25	; 37
    19fc:	90 e0       	ldi	r25, 0x00	; 0
    19fe:	0e 94 70 00 	call	0xe0	; 0xe0 <GPIO_write_low>
	GPIO_write_low(&PORTB, LED_BLINK);
    1a02:	60 e0       	ldi	r22, 0x00	; 0
    1a04:	85 e2       	ldi	r24, 0x25	; 37
    1a06:	90 e0       	ldi	r25, 0x00	; 0
    1a08:	0e 94 70 00 	call	0xe0	; 0xe0 <GPIO_write_low>
		
	//configure alarm as output and turn it off
	GPIO_config_output(&DDRB, alarm);
    1a0c:	64 e0       	ldi	r22, 0x04	; 4
    1a0e:	84 e2       	ldi	r24, 0x24	; 36
    1a10:	90 e0       	ldi	r25, 0x00	; 0
    1a12:	0e 94 53 00 	call	0xa6	; 0xa6 <GPIO_config_output>
	GPIO_write_low(&PORTB, alarm);
    1a16:	64 e0       	ldi	r22, 0x04	; 4
    1a18:	85 e2       	ldi	r24, 0x25	; 37
    1a1a:	90 e0       	ldi	r25, 0x00	; 0
    1a1c:	0e 94 70 00 	call	0xe0	; 0xe0 <GPIO_write_low>
    1a20:	08 95       	ret

00001a22 <lcd_config>:
}

void lcd_config(void)
{
    1a22:	ef 92       	push	r14
    1a24:	ff 92       	push	r15
    1a26:	0f 93       	push	r16
    1a28:	1f 93       	push	r17
    1a2a:	cf 93       	push	r28
    1a2c:	df 93       	push	r29
    1a2e:	cd b7       	in	r28, 0x3d	; 61
    1a30:	de b7       	in	r29, 0x3e	; 62
    1a32:	e0 97       	sbiw	r28, 0x30	; 48
    1a34:	0f b6       	in	r0, 0x3f	; 63
    1a36:	f8 94       	cli
    1a38:	de bf       	out	0x3e, r29	; 62
    1a3a:	0f be       	out	0x3f, r0	; 63
    1a3c:	cd bf       	out	0x3d, r28	; 61
	//array of custom characters representing different stages of progress on one segment of load bar
	uint8_t customChar[] = 
    1a3e:	80 e3       	ldi	r24, 0x30	; 48
    1a40:	e1 e0       	ldi	r30, 0x01	; 1
    1a42:	f1 e0       	ldi	r31, 0x01	; 1
    1a44:	de 01       	movw	r26, r28
    1a46:	11 96       	adiw	r26, 0x01	; 1
    1a48:	01 90       	ld	r0, Z+
    1a4a:	0d 92       	st	X+, r0
    1a4c:	8a 95       	dec	r24
    1a4e:	e1 f7       	brne	.-8      	; 0x1a48 <lcd_config+0x26>
		// addr 5: |||||
		0b11111, 0b11111, 0b11111, 0b11111, 0b11111, 0b11111, 0b11111, 0b11111,
	};
		
	//initialize LCD, display strings that do not change
	lcd_init(LCD_DISP_ON);
    1a50:	8c e0       	ldi	r24, 0x0C	; 12
    1a52:	0e 94 04 01 	call	0x208	; 0x208 <lcd_init>
	lcd_gotoxy(1, 0);
    1a56:	60 e0       	ldi	r22, 0x00	; 0
    1a58:	81 e0       	ldi	r24, 0x01	; 1
    1a5a:	0e 94 e2 00 	call	0x1c4	; 0x1c4 <lcd_gotoxy>
	lcd_puts("dist_front:");
    1a5e:	80 ef       	ldi	r24, 0xF0	; 240
    1a60:	91 e0       	ldi	r25, 0x01	; 1
    1a62:	0e 94 f4 00 	call	0x1e8	; 0x1e8 <lcd_puts>
	lcd_gotoxy(1, 2);
    1a66:	62 e0       	ldi	r22, 0x02	; 2
    1a68:	81 e0       	ldi	r24, 0x01	; 1
    1a6a:	0e 94 e2 00 	call	0x1c4	; 0x1c4 <lcd_gotoxy>
	lcd_puts("dist_back :");
    1a6e:	8c ef       	ldi	r24, 0xFC	; 252
    1a70:	91 e0       	ldi	r25, 0x01	; 1
    1a72:	0e 94 f4 00 	call	0x1e8	; 0x1e8 <lcd_puts>
		
	//set pointer at beginning of CGRAM
	lcd_command(1 << LCD_CGRAM);
    1a76:	80 e4       	ldi	r24, 0x40	; 64
    1a78:	0e 94 da 00 	call	0x1b4	; 0x1b4 <lcd_command>
    1a7c:	8e 01       	movw	r16, r28
    1a7e:	0f 5f       	subi	r16, 0xFF	; 255
    1a80:	1f 4f       	sbci	r17, 0xFF	; 255
    1a82:	7e 01       	movw	r14, r28
    1a84:	81 e3       	ldi	r24, 0x31	; 49
    1a86:	e8 0e       	add	r14, r24
    1a88:	f1 1c       	adc	r15, r1
	for (uint8_t i = 0; i < 48; i++)
	{
		// Store all new chars to memory line by line
		lcd_data(customChar[i]);
    1a8a:	f8 01       	movw	r30, r16
    1a8c:	81 91       	ld	r24, Z+
    1a8e:	8f 01       	movw	r16, r30
    1a90:	0e 94 de 00 	call	0x1bc	; 0x1bc <lcd_data>
	lcd_gotoxy(1, 2);
	lcd_puts("dist_back :");
		
	//set pointer at beginning of CGRAM
	lcd_command(1 << LCD_CGRAM);
	for (uint8_t i = 0; i < 48; i++)
    1a94:	0e 15       	cp	r16, r14
    1a96:	1f 05       	cpc	r17, r15
    1a98:	c1 f7       	brne	.-16     	; 0x1a8a <lcd_config+0x68>
		// Store all new chars to memory line by line
		lcd_data(customChar[i]);
	}
	
	// Set DDRAM address
	lcd_command(1 << LCD_DDRAM);
    1a9a:	80 e8       	ldi	r24, 0x80	; 128
    1a9c:	0e 94 da 00 	call	0x1b4	; 0x1b4 <lcd_command>
	

}
    1aa0:	e0 96       	adiw	r28, 0x30	; 48
    1aa2:	0f b6       	in	r0, 0x3f	; 63
    1aa4:	f8 94       	cli
    1aa6:	de bf       	out	0x3e, r29	; 62
    1aa8:	0f be       	out	0x3f, r0	; 63
    1aaa:	cd bf       	out	0x3d, r28	; 61
    1aac:	df 91       	pop	r29
    1aae:	cf 91       	pop	r28
    1ab0:	1f 91       	pop	r17
    1ab2:	0f 91       	pop	r16
    1ab4:	ff 90       	pop	r15
    1ab6:	ef 90       	pop	r14
    1ab8:	08 95       	ret

00001aba <LEDs_off>:

//turn all LEDs off
void LEDs_off(void)
{
	GPIO_write_low(&PORTC, LED1);
    1aba:	61 e0       	ldi	r22, 0x01	; 1
    1abc:	88 e2       	ldi	r24, 0x28	; 40
    1abe:	90 e0       	ldi	r25, 0x00	; 0
    1ac0:	0e 94 70 00 	call	0xe0	; 0xe0 <GPIO_write_low>
	GPIO_write_low(&PORTC, LED2);
    1ac4:	62 e0       	ldi	r22, 0x02	; 2
    1ac6:	88 e2       	ldi	r24, 0x28	; 40
    1ac8:	90 e0       	ldi	r25, 0x00	; 0
    1aca:	0e 94 70 00 	call	0xe0	; 0xe0 <GPIO_write_low>
	GPIO_write_low(&PORTC, LED3);
    1ace:	63 e0       	ldi	r22, 0x03	; 3
    1ad0:	88 e2       	ldi	r24, 0x28	; 40
    1ad2:	90 e0       	ldi	r25, 0x00	; 0
    1ad4:	0e 94 70 00 	call	0xe0	; 0xe0 <GPIO_write_low>
	GPIO_write_low(&PORTC, LED4);
    1ad8:	64 e0       	ldi	r22, 0x04	; 4
    1ada:	88 e2       	ldi	r24, 0x28	; 40
    1adc:	90 e0       	ldi	r25, 0x00	; 0
    1ade:	0e 94 70 00 	call	0xe0	; 0xe0 <GPIO_write_low>
	GPIO_write_low(&PORTC, LED5);
    1ae2:	65 e0       	ldi	r22, 0x05	; 5
    1ae4:	88 e2       	ldi	r24, 0x28	; 40
    1ae6:	90 e0       	ldi	r25, 0x00	; 0
    1ae8:	0e 94 70 00 	call	0xe0	; 0xe0 <GPIO_write_low>
    1aec:	08 95       	ret

00001aee <LED_toggle>:
}

//togggles number of leds on led stripe
void LED_toggle(int number_of_LEDs)
{
	switch(number_of_LEDs)
    1aee:	83 30       	cpi	r24, 0x03	; 3
    1af0:	91 05       	cpc	r25, r1
    1af2:	f1 f0       	breq	.+60     	; 0x1b30 <LED_toggle+0x42>
    1af4:	34 f4       	brge	.+12     	; 0x1b02 <LED_toggle+0x14>
    1af6:	81 30       	cpi	r24, 0x01	; 1
    1af8:	91 05       	cpc	r25, r1
    1afa:	49 f0       	breq	.+18     	; 0x1b0e <LED_toggle+0x20>
    1afc:	02 97       	sbiw	r24, 0x02	; 2
    1afe:	69 f0       	breq	.+26     	; 0x1b1a <LED_toggle+0x2c>
    1b00:	08 95       	ret
    1b02:	84 30       	cpi	r24, 0x04	; 4
    1b04:	91 05       	cpc	r25, r1
    1b06:	21 f1       	breq	.+72     	; 0x1b50 <LED_toggle+0x62>
    1b08:	05 97       	sbiw	r24, 0x05	; 5
    1b0a:	b9 f1       	breq	.+110    	; 0x1b7a <LED_toggle+0x8c>
    1b0c:	08 95       	ret
	{
		case 1:
			GPIO_toggle(&PORTC, LED1);
    1b0e:	61 e0       	ldi	r22, 0x01	; 1
    1b10:	88 e2       	ldi	r24, 0x28	; 40
    1b12:	90 e0       	ldi	r25, 0x00	; 0
    1b14:	0e 94 89 00 	call	0x112	; 0x112 <GPIO_toggle>
			break;
    1b18:	08 95       	ret
		case 2:
			GPIO_toggle(&PORTC, LED1);
    1b1a:	61 e0       	ldi	r22, 0x01	; 1
    1b1c:	88 e2       	ldi	r24, 0x28	; 40
    1b1e:	90 e0       	ldi	r25, 0x00	; 0
    1b20:	0e 94 89 00 	call	0x112	; 0x112 <GPIO_toggle>
			GPIO_toggle(&PORTC, LED2);
    1b24:	62 e0       	ldi	r22, 0x02	; 2
    1b26:	88 e2       	ldi	r24, 0x28	; 40
    1b28:	90 e0       	ldi	r25, 0x00	; 0
    1b2a:	0e 94 89 00 	call	0x112	; 0x112 <GPIO_toggle>
			break;
    1b2e:	08 95       	ret
		case 3:
			GPIO_toggle(&PORTC, LED1);
    1b30:	61 e0       	ldi	r22, 0x01	; 1
    1b32:	88 e2       	ldi	r24, 0x28	; 40
    1b34:	90 e0       	ldi	r25, 0x00	; 0
    1b36:	0e 94 89 00 	call	0x112	; 0x112 <GPIO_toggle>
			GPIO_toggle(&PORTC, LED2);
    1b3a:	62 e0       	ldi	r22, 0x02	; 2
    1b3c:	88 e2       	ldi	r24, 0x28	; 40
    1b3e:	90 e0       	ldi	r25, 0x00	; 0
    1b40:	0e 94 89 00 	call	0x112	; 0x112 <GPIO_toggle>
			GPIO_toggle(&PORTC, LED3);
    1b44:	63 e0       	ldi	r22, 0x03	; 3
    1b46:	88 e2       	ldi	r24, 0x28	; 40
    1b48:	90 e0       	ldi	r25, 0x00	; 0
    1b4a:	0e 94 89 00 	call	0x112	; 0x112 <GPIO_toggle>
			break;
    1b4e:	08 95       	ret
		case 4:
			GPIO_toggle(&PORTC, LED1);
    1b50:	61 e0       	ldi	r22, 0x01	; 1
    1b52:	88 e2       	ldi	r24, 0x28	; 40
    1b54:	90 e0       	ldi	r25, 0x00	; 0
    1b56:	0e 94 89 00 	call	0x112	; 0x112 <GPIO_toggle>
			GPIO_toggle(&PORTC, LED2);
    1b5a:	62 e0       	ldi	r22, 0x02	; 2
    1b5c:	88 e2       	ldi	r24, 0x28	; 40
    1b5e:	90 e0       	ldi	r25, 0x00	; 0
    1b60:	0e 94 89 00 	call	0x112	; 0x112 <GPIO_toggle>
			GPIO_toggle(&PORTC, LED3);
    1b64:	63 e0       	ldi	r22, 0x03	; 3
    1b66:	88 e2       	ldi	r24, 0x28	; 40
    1b68:	90 e0       	ldi	r25, 0x00	; 0
    1b6a:	0e 94 89 00 	call	0x112	; 0x112 <GPIO_toggle>
			GPIO_toggle(&PORTC, LED4);
    1b6e:	64 e0       	ldi	r22, 0x04	; 4
    1b70:	88 e2       	ldi	r24, 0x28	; 40
    1b72:	90 e0       	ldi	r25, 0x00	; 0
    1b74:	0e 94 89 00 	call	0x112	; 0x112 <GPIO_toggle>
			break;
    1b78:	08 95       	ret
		case 5:
			GPIO_toggle(&PORTC, LED1);
    1b7a:	61 e0       	ldi	r22, 0x01	; 1
    1b7c:	88 e2       	ldi	r24, 0x28	; 40
    1b7e:	90 e0       	ldi	r25, 0x00	; 0
    1b80:	0e 94 89 00 	call	0x112	; 0x112 <GPIO_toggle>
			GPIO_toggle(&PORTC, LED2);
    1b84:	62 e0       	ldi	r22, 0x02	; 2
    1b86:	88 e2       	ldi	r24, 0x28	; 40
    1b88:	90 e0       	ldi	r25, 0x00	; 0
    1b8a:	0e 94 89 00 	call	0x112	; 0x112 <GPIO_toggle>
			GPIO_toggle(&PORTC, LED3);
    1b8e:	63 e0       	ldi	r22, 0x03	; 3
    1b90:	88 e2       	ldi	r24, 0x28	; 40
    1b92:	90 e0       	ldi	r25, 0x00	; 0
    1b94:	0e 94 89 00 	call	0x112	; 0x112 <GPIO_toggle>
			GPIO_toggle(&PORTC, LED4);
    1b98:	64 e0       	ldi	r22, 0x04	; 4
    1b9a:	88 e2       	ldi	r24, 0x28	; 40
    1b9c:	90 e0       	ldi	r25, 0x00	; 0
    1b9e:	0e 94 89 00 	call	0x112	; 0x112 <GPIO_toggle>
			GPIO_toggle(&PORTC, LED5);
    1ba2:	65 e0       	ldi	r22, 0x05	; 5
    1ba4:	88 e2       	ldi	r24, 0x28	; 40
    1ba6:	90 e0       	ldi	r25, 0x00	; 0
    1ba8:	0e 94 89 00 	call	0x112	; 0x112 <GPIO_toggle>
    1bac:	08 95       	ret

00001bae <main>:


int main(void)
{
	//initial configuration of LCD display
	lcd_config();
    1bae:	0e 94 11 0d 	call	0x1a22	; 0x1a22 <lcd_config>

	//initialize UART
	uart_init(UART_BAUD_SELECT(9600,F_CPU));
    1bb2:	87 e6       	ldi	r24, 0x67	; 103
    1bb4:	90 e0       	ldi	r25, 0x00	; 0
    1bb6:	0e 94 1b 10 	call	0x2036	; 0x2036 <uart_init>
		
	//initial configuration of pins
	pins_config();	
    1bba:	0e 94 c0 0c 	call	0x1980	; 0x1980 <pins_config>
						
	//turn LEDs off
	LEDs_off();						
    1bbe:	0e 94 5d 0d 	call	0x1aba	; 0x1aba <LEDs_off>
	
	//enable overflow interrupt and set default value
	TIM2_overflow_16ms();
    1bc2:	e1 eb       	ldi	r30, 0xB1	; 177
    1bc4:	f0 e0       	ldi	r31, 0x00	; 0
    1bc6:	80 81       	ld	r24, Z
    1bc8:	87 60       	ori	r24, 0x07	; 7
    1bca:	80 83       	st	Z, r24
	TIM2_overflow_interrupt_enable();
    1bcc:	e0 e7       	ldi	r30, 0x70	; 112
    1bce:	f0 e0       	ldi	r31, 0x00	; 0
    1bd0:	80 81       	ld	r24, Z
    1bd2:	81 60       	ori	r24, 0x01	; 1
    1bd4:	80 83       	st	Z, r24
	
	//Rising edge of INT1 generates an interrupt request
	EICRA |= (1 << ISC11) | (1 << ISC10);   
    1bd6:	e9 e6       	ldi	r30, 0x69	; 105
    1bd8:	f0 e0       	ldi	r31, 0x00	; 0
    1bda:	80 81       	ld	r24, Z
    1bdc:	8c 60       	ori	r24, 0x0C	; 12
    1bde:	80 83       	st	Z, r24
	EIMSK |= (1 << INT1);
    1be0:	e9 9a       	sbi	0x1d, 1	; 29
	
	//Rising edge of INT0 generates an interrupt request
	EICRA |= (1 << ISC01) | (1 << ISC00);
    1be2:	80 81       	ld	r24, Z
    1be4:	83 60       	ori	r24, 0x03	; 3
    1be6:	80 83       	st	Z, r24
	EIMSK |= (1 << INT0);
    1be8:	e8 9a       	sbi	0x1d, 0	; 29
	
	sei(); //enable interrupts
    1bea:	78 94       	sei
		   }
		}

		int smaller_distance = 1;					//for saving the smaller distance of the 2 sensors
		
		if(distances[0] > distances[1])
    1bec:	0a e0       	ldi	r16, 0x0A	; 10
    1bee:	12 e0       	ldi	r17, 0x02	; 2
		Uart_info(distances);									//interesting info to uart
		
		//change sensor id for next loop
		if (sensor_id==0)
		{
			sensor_id=1;
    1bf0:	ff 24       	eor	r15, r15
    1bf2:	f3 94       	inc	r15
	sei(); //enable interrupts
	
    while (1) 
    {
		//set frequency signaling diode to loew
		GPIO_write_low(&PORTB, alarm);
    1bf4:	64 e0       	ldi	r22, 0x04	; 4
    1bf6:	85 e2       	ldi	r24, 0x25	; 37
    1bf8:	90 e0       	ldi	r25, 0x00	; 0
    1bfa:	0e 94 70 00 	call	0xe0	; 0xe0 <GPIO_write_low>
		if (trigger_enable==1)
    1bfe:	80 91 00 01 	lds	r24, 0x0100	; 0x800100 <__data_start>
    1c02:	81 30       	cpi	r24, 0x01	; 1
    1c04:	69 f5       	brne	.+90     	; 0x1c60 <main+0xb2>
		{
		   if (sensor_id == 1)
    1c06:	80 91 12 02 	lds	r24, 0x0212	; 0x800212 <sensor_id>
    1c0a:	81 30       	cpi	r24, 0x01	; 1
    1c0c:	a9 f4       	brne	.+42     	; 0x1c38 <main+0x8a>
    1c0e:	85 ed       	ldi	r24, 0xD5	; 213
    1c10:	8a 95       	dec	r24
    1c12:	f1 f7       	brne	.-4      	; 0x1c10 <main+0x62>
    1c14:	00 00       	nop
		   {
			    _delay_us(40);
				//send start pulse (10us) to back sensor
				GPIO_write_high(&PORTB,Back_trigger);
    1c16:	62 e0       	ldi	r22, 0x02	; 2
    1c18:	85 e2       	ldi	r24, 0x25	; 37
    1c1a:	90 e0       	ldi	r25, 0x00	; 0
    1c1c:	0e 94 7d 00 	call	0xfa	; 0xfa <GPIO_write_high>
    1c20:	e5 e3       	ldi	r30, 0x35	; 53
    1c22:	ea 95       	dec	r30
    1c24:	f1 f7       	brne	.-4      	; 0x1c22 <main+0x74>
    1c26:	00 00       	nop
				_delay_us(10);
				GPIO_write_low(&PORTB,Back_trigger);
    1c28:	62 e0       	ldi	r22, 0x02	; 2
    1c2a:	85 e2       	ldi	r24, 0x25	; 37
    1c2c:	90 e0       	ldi	r25, 0x00	; 0
    1c2e:	0e 94 70 00 	call	0xe0	; 0xe0 <GPIO_write_low>
				trigger_enable = 0;						//disable sending start pulse			   
    1c32:	10 92 00 01 	sts	0x0100, r1	; 0x800100 <__data_start>
    1c36:	14 c0       	rjmp	.+40     	; 0x1c60 <main+0xb2>
    1c38:	f5 ed       	ldi	r31, 0xD5	; 213
    1c3a:	fa 95       	dec	r31
    1c3c:	f1 f7       	brne	.-4      	; 0x1c3a <main+0x8c>
    1c3e:	00 00       	nop
		   }
		   else
		   {
			   _delay_us(40);
				GPIO_write_high(&PORTB,Front_trigger);
    1c40:	63 e0       	ldi	r22, 0x03	; 3
    1c42:	85 e2       	ldi	r24, 0x25	; 37
    1c44:	90 e0       	ldi	r25, 0x00	; 0
    1c46:	0e 94 7d 00 	call	0xfa	; 0xfa <GPIO_write_high>
    1c4a:	85 e3       	ldi	r24, 0x35	; 53
    1c4c:	8a 95       	dec	r24
    1c4e:	f1 f7       	brne	.-4      	; 0x1c4c <main+0x9e>
    1c50:	00 00       	nop
				_delay_us(10);
				GPIO_write_low(&PORTB,Front_trigger);
    1c52:	63 e0       	ldi	r22, 0x03	; 3
    1c54:	85 e2       	ldi	r24, 0x25	; 37
    1c56:	90 e0       	ldi	r25, 0x00	; 0
    1c58:	0e 94 70 00 	call	0xe0	; 0xe0 <GPIO_write_low>
				trigger_enable = 0;						//disable sending start pulse
    1c5c:	10 92 00 01 	sts	0x0100, r1	; 0x800100 <__data_start>
		   }
		}

		int smaller_distance = 1;					//for saving the smaller distance of the 2 sensors
		
		if(distances[0] > distances[1])
    1c60:	f8 01       	movw	r30, r16
    1c62:	60 81       	ld	r22, Z
    1c64:	71 81       	ldd	r23, Z+1	; 0x01
    1c66:	82 81       	ldd	r24, Z+2	; 0x02
    1c68:	93 81       	ldd	r25, Z+3	; 0x03
    1c6a:	24 81       	ldd	r18, Z+4	; 0x04
    1c6c:	35 81       	ldd	r19, Z+5	; 0x05
    1c6e:	46 81       	ldd	r20, Z+6	; 0x06
    1c70:	57 81       	ldd	r21, Z+7	; 0x07
    1c72:	0e 94 75 11 	call	0x22ea	; 0x22ea <__gesf2>
    1c76:	18 16       	cp	r1, r24
    1c78:	4c f4       	brge	.+18     	; 0x1c8c <main+0xde>
		{
			smaller_distance = distances[1];	
    1c7a:	f8 01       	movw	r30, r16
    1c7c:	64 81       	ldd	r22, Z+4	; 0x04
    1c7e:	75 81       	ldd	r23, Z+5	; 0x05
    1c80:	86 81       	ldd	r24, Z+6	; 0x06
    1c82:	97 81       	ldd	r25, Z+7	; 0x07
    1c84:	0e 94 ca 10 	call	0x2194	; 0x2194 <__fixsfsi>
    1c88:	eb 01       	movw	r28, r22
    1c8a:	08 c0       	rjmp	.+16     	; 0x1c9c <main+0xee>
		}
		else
		{
			smaller_distance = distances[0];	
    1c8c:	f8 01       	movw	r30, r16
    1c8e:	60 81       	ld	r22, Z
    1c90:	71 81       	ldd	r23, Z+1	; 0x01
    1c92:	82 81       	ldd	r24, Z+2	; 0x02
    1c94:	93 81       	ldd	r25, Z+3	; 0x03
    1c96:	0e 94 ca 10 	call	0x2194	; 0x2194 <__fixsfsi>
    1c9a:	eb 01       	movw	r28, r22
		}
		
		//update load bar based on smaller distance
		Load_bar(smaller_distance);	
    1c9c:	ce 01       	movw	r24, r28
    1c9e:	0e 94 52 02 	call	0x4a4	; 0x4a4 <Load_bar>
		
		//update warning message based on smaller distance				
		Update_warning(smaller_distance);					
    1ca2:	ce 01       	movw	r24, r28
    1ca4:	0e 94 9e 01 	call	0x33c	; 0x33c <Update_warning>
	
		distances[sensor_id]=distances[sensor_id]*(0.151);	//convert to cm
    1ca8:	c0 91 12 02 	lds	r28, 0x0212	; 0x800212 <sensor_id>
    1cac:	d0 e0       	ldi	r29, 0x00	; 0
    1cae:	e0 91 12 02 	lds	r30, 0x0212	; 0x800212 <sensor_id>
    1cb2:	f0 e0       	ldi	r31, 0x00	; 0
    1cb4:	ee 0f       	add	r30, r30
    1cb6:	ff 1f       	adc	r31, r31
    1cb8:	ee 0f       	add	r30, r30
    1cba:	ff 1f       	adc	r31, r31
    1cbc:	e6 5f       	subi	r30, 0xF6	; 246
    1cbe:	fd 4f       	sbci	r31, 0xFD	; 253
    1cc0:	60 81       	ld	r22, Z
    1cc2:	71 81       	ldd	r23, Z+1	; 0x01
    1cc4:	82 81       	ldd	r24, Z+2	; 0x02
    1cc6:	93 81       	ldd	r25, Z+3	; 0x03
    1cc8:	2e eb       	ldi	r18, 0xBE	; 190
    1cca:	3f e9       	ldi	r19, 0x9F	; 159
    1ccc:	4a e1       	ldi	r20, 0x1A	; 26
    1cce:	5e e3       	ldi	r21, 0x3E	; 62
    1cd0:	0e 94 7a 11 	call	0x22f4	; 0x22f4 <__mulsf3>
    1cd4:	cc 0f       	add	r28, r28
    1cd6:	dd 1f       	adc	r29, r29
    1cd8:	cc 0f       	add	r28, r28
    1cda:	dd 1f       	adc	r29, r29
    1cdc:	c6 5f       	subi	r28, 0xF6	; 246
    1cde:	dd 4f       	sbci	r29, 0xFD	; 253
    1ce0:	68 83       	st	Y, r22
    1ce2:	79 83       	std	Y+1, r23	; 0x01
    1ce4:	8a 83       	std	Y+2, r24	; 0x02
    1ce6:	9b 83       	std	Y+3, r25	; 0x03
		
		itoa(distances[sensor_id], lcd_string, 10);				// Convert decimal value to string
    1ce8:	e0 91 12 02 	lds	r30, 0x0212	; 0x800212 <sensor_id>
    1cec:	f0 e0       	ldi	r31, 0x00	; 0
    1cee:	ee 0f       	add	r30, r30
    1cf0:	ff 1f       	adc	r31, r31
    1cf2:	ee 0f       	add	r30, r30
    1cf4:	ff 1f       	adc	r31, r31
    1cf6:	e6 5f       	subi	r30, 0xF6	; 246
    1cf8:	fd 4f       	sbci	r31, 0xFD	; 253
    1cfa:	60 81       	ld	r22, Z
    1cfc:	71 81       	ldd	r23, Z+1	; 0x01
    1cfe:	82 81       	ldd	r24, Z+2	; 0x02
    1d00:	93 81       	ldd	r25, Z+3	; 0x03
    } else if (__radix < 2 || __radix > 36) {
	*__s = 0;
	return __s;
    } else {
	extern char *__itoa_ncheck (int, char *, unsigned char);
	return __itoa_ncheck (__val, __s, __radix);
    1d02:	0e 94 ca 10 	call	0x2194	; 0x2194 <__fixsfsi>
    1d06:	dc 01       	movw	r26, r24
    1d08:	cb 01       	movw	r24, r22
    1d0a:	4a e0       	ldi	r20, 0x0A	; 10
    1d0c:	68 e5       	ldi	r22, 0x58	; 88
    1d0e:	72 e0       	ldi	r23, 0x02	; 2
    1d10:	0e 94 e7 11 	call	0x23ce	; 0x23ce <__itoa_ncheck>
		
		Display_dist(sensor_id,distances,lcd_string);			//display distance on lcd
    1d14:	80 91 12 02 	lds	r24, 0x0212	; 0x800212 <sensor_id>
    1d18:	48 e5       	ldi	r20, 0x58	; 88
    1d1a:	52 e0       	ldi	r21, 0x02	; 2
    1d1c:	b8 01       	movw	r22, r16
    1d1e:	0e 94 46 01 	call	0x28c	; 0x28c <Display_dist>
		
		Uart_info(distances);									//interesting info to uart
    1d22:	c8 01       	movw	r24, r16
    1d24:	0e 94 09 02 	call	0x412	; 0x412 <Uart_info>
		
		//change sensor id for next loop
		if (sensor_id==0)
    1d28:	80 91 12 02 	lds	r24, 0x0212	; 0x800212 <sensor_id>
    1d2c:	81 11       	cpse	r24, r1
    1d2e:	03 c0       	rjmp	.+6      	; 0x1d36 <main+0x188>
		{
			sensor_id=1;
    1d30:	f0 92 12 02 	sts	0x0212, r15	; 0x800212 <sensor_id>
    1d34:	5f cf       	rjmp	.-322    	; 0x1bf4 <main+0x46>
		}
		else
		{
			sensor_id=0;
    1d36:	10 92 12 02 	sts	0x0212, r1	; 0x800212 <sensor_id>
    1d3a:	5c cf       	rjmp	.-328    	; 0x1bf4 <main+0x46>

00001d3c <__vector_2>:
					
    	
}

//interrupt iterates as long as echo signal from front sensor is 1
ISR(INT1_vect){
    1d3c:	1f 92       	push	r1
    1d3e:	0f 92       	push	r0
    1d40:	0f b6       	in	r0, 0x3f	; 63
    1d42:	0f 92       	push	r0
    1d44:	11 24       	eor	r1, r1
    1d46:	2f 93       	push	r18
    1d48:	3f 93       	push	r19
    1d4a:	4f 93       	push	r20
    1d4c:	5f 93       	push	r21
    1d4e:	6f 93       	push	r22
    1d50:	7f 93       	push	r23
    1d52:	8f 93       	push	r24
    1d54:	9f 93       	push	r25
    1d56:	af 93       	push	r26
    1d58:	bf 93       	push	r27
    1d5a:	cf 93       	push	r28
    1d5c:	df 93       	push	r29
    1d5e:	ef 93       	push	r30
    1d60:	ff 93       	push	r31
	do
	{
		distances[0]++;						//keep counting
    1d62:	ca e0       	ldi	r28, 0x0A	; 10
    1d64:	d2 e0       	ldi	r29, 0x02	; 2
    1d66:	68 81       	ld	r22, Y
    1d68:	79 81       	ldd	r23, Y+1	; 0x01
    1d6a:	8a 81       	ldd	r24, Y+2	; 0x02
    1d6c:	9b 81       	ldd	r25, Y+3	; 0x03
    1d6e:	20 e0       	ldi	r18, 0x00	; 0
    1d70:	30 e0       	ldi	r19, 0x00	; 0
    1d72:	40 e8       	ldi	r20, 0x80	; 128
    1d74:	5f e3       	ldi	r21, 0x3F	; 63
    1d76:	0e 94 59 10 	call	0x20b2	; 0x20b2 <__addsf3>
    1d7a:	68 83       	st	Y, r22
    1d7c:	79 83       	std	Y+1, r23	; 0x01
    1d7e:	8a 83       	std	Y+2, r24	; 0x02
    1d80:	9b 83       	std	Y+3, r25	; 0x03
	} while (GPIO_read(&PIND,Front_Echo));	//until echo is 0
    1d82:	63 e0       	ldi	r22, 0x03	; 3
    1d84:	89 e2       	ldi	r24, 0x29	; 41
    1d86:	90 e0       	ldi	r25, 0x00	; 0
    1d88:	0e 94 95 00 	call	0x12a	; 0x12a <GPIO_read>
    1d8c:	81 11       	cpse	r24, r1
    1d8e:	eb cf       	rjmp	.-42     	; 0x1d66 <__vector_2+0x2a>
	trigger_enable=1;						//enable trigger
    1d90:	81 e0       	ldi	r24, 0x01	; 1
    1d92:	80 93 00 01 	sts	0x0100, r24	; 0x800100 <__data_start>
}
    1d96:	ff 91       	pop	r31
    1d98:	ef 91       	pop	r30
    1d9a:	df 91       	pop	r29
    1d9c:	cf 91       	pop	r28
    1d9e:	bf 91       	pop	r27
    1da0:	af 91       	pop	r26
    1da2:	9f 91       	pop	r25
    1da4:	8f 91       	pop	r24
    1da6:	7f 91       	pop	r23
    1da8:	6f 91       	pop	r22
    1daa:	5f 91       	pop	r21
    1dac:	4f 91       	pop	r20
    1dae:	3f 91       	pop	r19
    1db0:	2f 91       	pop	r18
    1db2:	0f 90       	pop	r0
    1db4:	0f be       	out	0x3f, r0	; 63
    1db6:	0f 90       	pop	r0
    1db8:	1f 90       	pop	r1
    1dba:	18 95       	reti

00001dbc <__vector_1>:

//interrupt iterates as long as echo signal from back sensor is 1
ISR(INT0_vect){
    1dbc:	1f 92       	push	r1
    1dbe:	0f 92       	push	r0
    1dc0:	0f b6       	in	r0, 0x3f	; 63
    1dc2:	0f 92       	push	r0
    1dc4:	11 24       	eor	r1, r1
    1dc6:	2f 93       	push	r18
    1dc8:	3f 93       	push	r19
    1dca:	4f 93       	push	r20
    1dcc:	5f 93       	push	r21
    1dce:	6f 93       	push	r22
    1dd0:	7f 93       	push	r23
    1dd2:	8f 93       	push	r24
    1dd4:	9f 93       	push	r25
    1dd6:	af 93       	push	r26
    1dd8:	bf 93       	push	r27
    1dda:	cf 93       	push	r28
    1ddc:	df 93       	push	r29
    1dde:	ef 93       	push	r30
    1de0:	ff 93       	push	r31
	do
	{
		distances[1]++;						//keep counting
    1de2:	ca e0       	ldi	r28, 0x0A	; 10
    1de4:	d2 e0       	ldi	r29, 0x02	; 2
    1de6:	6c 81       	ldd	r22, Y+4	; 0x04
    1de8:	7d 81       	ldd	r23, Y+5	; 0x05
    1dea:	8e 81       	ldd	r24, Y+6	; 0x06
    1dec:	9f 81       	ldd	r25, Y+7	; 0x07
    1dee:	20 e0       	ldi	r18, 0x00	; 0
    1df0:	30 e0       	ldi	r19, 0x00	; 0
    1df2:	40 e8       	ldi	r20, 0x80	; 128
    1df4:	5f e3       	ldi	r21, 0x3F	; 63
    1df6:	0e 94 59 10 	call	0x20b2	; 0x20b2 <__addsf3>
    1dfa:	6c 83       	std	Y+4, r22	; 0x04
    1dfc:	7d 83       	std	Y+5, r23	; 0x05
    1dfe:	8e 83       	std	Y+6, r24	; 0x06
    1e00:	9f 83       	std	Y+7, r25	; 0x07
	} while (GPIO_read(&PIND,Back_Echo));	//until echo is 0
    1e02:	62 e0       	ldi	r22, 0x02	; 2
    1e04:	89 e2       	ldi	r24, 0x29	; 41
    1e06:	90 e0       	ldi	r25, 0x00	; 0
    1e08:	0e 94 95 00 	call	0x12a	; 0x12a <GPIO_read>
    1e0c:	81 11       	cpse	r24, r1
    1e0e:	eb cf       	rjmp	.-42     	; 0x1de6 <__vector_1+0x2a>
	trigger_enable=1;						//enable trigger
    1e10:	81 e0       	ldi	r24, 0x01	; 1
    1e12:	80 93 00 01 	sts	0x0100, r24	; 0x800100 <__data_start>
}
    1e16:	ff 91       	pop	r31
    1e18:	ef 91       	pop	r30
    1e1a:	df 91       	pop	r29
    1e1c:	cf 91       	pop	r28
    1e1e:	bf 91       	pop	r27
    1e20:	af 91       	pop	r26
    1e22:	9f 91       	pop	r25
    1e24:	8f 91       	pop	r24
    1e26:	7f 91       	pop	r23
    1e28:	6f 91       	pop	r22
    1e2a:	5f 91       	pop	r21
    1e2c:	4f 91       	pop	r20
    1e2e:	3f 91       	pop	r19
    1e30:	2f 91       	pop	r18
    1e32:	0f 90       	pop	r0
    1e34:	0f be       	out	0x3f, r0	; 63
    1e36:	0f 90       	pop	r0
    1e38:	1f 90       	pop	r1
    1e3a:	18 95       	reti

00001e3c <__vector_9>:


ISR(TIMER2_OVF_vect)
{
    1e3c:	1f 92       	push	r1
    1e3e:	0f 92       	push	r0
    1e40:	0f b6       	in	r0, 0x3f	; 63
    1e42:	0f 92       	push	r0
    1e44:	11 24       	eor	r1, r1
    1e46:	2f 93       	push	r18
    1e48:	3f 93       	push	r19
    1e4a:	4f 93       	push	r20
    1e4c:	5f 93       	push	r21
    1e4e:	6f 93       	push	r22
    1e50:	7f 93       	push	r23
    1e52:	8f 93       	push	r24
    1e54:	9f 93       	push	r25
    1e56:	af 93       	push	r26
    1e58:	bf 93       	push	r27
    1e5a:	cf 93       	push	r28
    1e5c:	df 93       	push	r29
    1e5e:	ef 93       	push	r30
    1e60:	ff 93       	push	r31
	int freq = 50;  //for saving closer distance
	timer_count++;	//run every 5 led flicks
    1e62:	80 91 08 02 	lds	r24, 0x0208	; 0x800208 <__data_end>
    1e66:	90 91 09 02 	lds	r25, 0x0209	; 0x800209 <__data_end+0x1>
    1e6a:	01 96       	adiw	r24, 0x01	; 1
    1e6c:	90 93 09 02 	sts	0x0209, r25	; 0x800209 <__data_end+0x1>
    1e70:	80 93 08 02 	sts	0x0208, r24	; 0x800208 <__data_end>
	if (timer_count==5)
    1e74:	80 91 08 02 	lds	r24, 0x0208	; 0x800208 <__data_end>
    1e78:	90 91 09 02 	lds	r25, 0x0209	; 0x800209 <__data_end+0x1>
    1e7c:	05 97       	sbiw	r24, 0x05	; 5
    1e7e:	09 f0       	breq	.+2      	; 0x1e82 <__vector_9+0x46>
    1e80:	6f c0       	rjmp	.+222    	; 0x1f60 <__vector_9+0x124>
	{
		//choose the smaller distance
		if(distances[0] > distances[1])
    1e82:	ea e0       	ldi	r30, 0x0A	; 10
    1e84:	f2 e0       	ldi	r31, 0x02	; 2
    1e86:	60 81       	ld	r22, Z
    1e88:	71 81       	ldd	r23, Z+1	; 0x01
    1e8a:	82 81       	ldd	r24, Z+2	; 0x02
    1e8c:	93 81       	ldd	r25, Z+3	; 0x03
    1e8e:	24 81       	ldd	r18, Z+4	; 0x04
    1e90:	35 81       	ldd	r19, Z+5	; 0x05
    1e92:	46 81       	ldd	r20, Z+6	; 0x06
    1e94:	57 81       	ldd	r21, Z+7	; 0x07
    1e96:	0e 94 75 11 	call	0x22ea	; 0x22ea <__gesf2>
    1e9a:	18 16       	cp	r1, r24
    1e9c:	64 f4       	brge	.+24     	; 0x1eb6 <__vector_9+0x7a>
		{
			freq = distances[1];
    1e9e:	60 91 0e 02 	lds	r22, 0x020E	; 0x80020e <distances+0x4>
    1ea2:	70 91 0f 02 	lds	r23, 0x020F	; 0x80020f <distances+0x5>
    1ea6:	80 91 10 02 	lds	r24, 0x0210	; 0x800210 <distances+0x6>
    1eaa:	90 91 11 02 	lds	r25, 0x0211	; 0x800211 <distances+0x7>
    1eae:	0e 94 ca 10 	call	0x2194	; 0x2194 <__fixsfsi>
    1eb2:	eb 01       	movw	r28, r22
    1eb4:	0b c0       	rjmp	.+22     	; 0x1ecc <__vector_9+0x90>
		}
		else
		{
			freq = distances[0];
    1eb6:	60 91 0a 02 	lds	r22, 0x020A	; 0x80020a <distances>
    1eba:	70 91 0b 02 	lds	r23, 0x020B	; 0x80020b <distances+0x1>
    1ebe:	80 91 0c 02 	lds	r24, 0x020C	; 0x80020c <distances+0x2>
    1ec2:	90 91 0d 02 	lds	r25, 0x020D	; 0x80020d <distances+0x3>
    1ec6:	0e 94 ca 10 	call	0x2194	; 0x2194 <__fixsfsi>
    1eca:	eb 01       	movw	r28, r22
		}
		if (freq<=100)
    1ecc:	c5 36       	cpi	r28, 0x65	; 101
    1ece:	d1 05       	cpc	r29, r1
    1ed0:	2c f4       	brge	.+10     	; 0x1edc <__vector_9+0xa0>
		{
			GPIO_toggle(&PORTB, alarm);
    1ed2:	64 e0       	ldi	r22, 0x04	; 4
    1ed4:	85 e2       	ldi	r24, 0x25	; 37
    1ed6:	90 e0       	ldi	r25, 0x00	; 0
    1ed8:	0e 94 89 00 	call	0x112	; 0x112 <GPIO_toggle>
		}
		//select frequency of signal led based on smaller distance
		if (freq <= 100 && freq > 75)
    1edc:	9e 01       	movw	r18, r28
    1ede:	ce 01       	movw	r24, r28
    1ee0:	8c 54       	subi	r24, 0x4C	; 76
    1ee2:	91 09       	sbc	r25, r1
    1ee4:	49 97       	sbiw	r24, 0x19	; 25
    1ee6:	30 f4       	brcc	.+12     	; 0x1ef4 <__vector_9+0xb8>
		{
			TIM2_overflow_16ms();												
    1ee8:	e1 eb       	ldi	r30, 0xB1	; 177
    1eea:	f0 e0       	ldi	r31, 0x00	; 0
    1eec:	80 81       	ld	r24, Z
    1eee:	87 60       	ori	r24, 0x07	; 7
    1ef0:	80 83       	st	Z, r24
    1ef2:	32 c0       	rjmp	.+100    	; 0x1f58 <__vector_9+0x11c>
		}
		else if (freq <= 75 && freq > 50)
    1ef4:	ce 01       	movw	r24, r28
    1ef6:	c3 97       	sbiw	r24, 0x33	; 51
    1ef8:	49 97       	sbiw	r24, 0x19	; 25
    1efa:	48 f4       	brcc	.+18     	; 0x1f0e <__vector_9+0xd2>
		{
			TIM2_overflow_4ms();								
    1efc:	e1 eb       	ldi	r30, 0xB1	; 177
    1efe:	f0 e0       	ldi	r31, 0x00	; 0
    1f00:	80 81       	ld	r24, Z
    1f02:	8e 7f       	andi	r24, 0xFE	; 254
    1f04:	80 83       	st	Z, r24
    1f06:	80 81       	ld	r24, Z
    1f08:	86 60       	ori	r24, 0x06	; 6
    1f0a:	80 83       	st	Z, r24
    1f0c:	25 c0       	rjmp	.+74     	; 0x1f58 <__vector_9+0x11c>
		}
		else if (freq <= 50 && freq > 25)
    1f0e:	ce 01       	movw	r24, r28
    1f10:	4a 97       	sbiw	r24, 0x1a	; 26
    1f12:	49 97       	sbiw	r24, 0x19	; 25
    1f14:	48 f4       	brcc	.+18     	; 0x1f28 <__vector_9+0xec>
		{
			TIM2_overflow_2ms();								
    1f16:	e1 eb       	ldi	r30, 0xB1	; 177
    1f18:	f0 e0       	ldi	r31, 0x00	; 0
    1f1a:	80 81       	ld	r24, Z
    1f1c:	8d 7f       	andi	r24, 0xFD	; 253
    1f1e:	80 83       	st	Z, r24
    1f20:	80 81       	ld	r24, Z
    1f22:	85 60       	ori	r24, 0x05	; 5
    1f24:	80 83       	st	Z, r24
    1f26:	18 c0       	rjmp	.+48     	; 0x1f58 <__vector_9+0x11c>
		}
		else if (freq <= 25 && freq > 10)
    1f28:	2b 50       	subi	r18, 0x0B	; 11
    1f2a:	31 09       	sbc	r19, r1
    1f2c:	2f 30       	cpi	r18, 0x0F	; 15
    1f2e:	31 05       	cpc	r19, r1
    1f30:	48 f4       	brcc	.+18     	; 0x1f44 <__vector_9+0x108>
		{
			TIM2_overflow_1ms();								
    1f32:	e1 eb       	ldi	r30, 0xB1	; 177
    1f34:	f0 e0       	ldi	r31, 0x00	; 0
    1f36:	80 81       	ld	r24, Z
    1f38:	8c 7f       	andi	r24, 0xFC	; 252
    1f3a:	80 83       	st	Z, r24
    1f3c:	80 81       	ld	r24, Z
    1f3e:	84 60       	ori	r24, 0x04	; 4
    1f40:	80 83       	st	Z, r24
    1f42:	0a c0       	rjmp	.+20     	; 0x1f58 <__vector_9+0x11c>
		}
		else if (freq <= 10)
    1f44:	2b 97       	sbiw	r28, 0x0b	; 11
    1f46:	44 f4       	brge	.+16     	; 0x1f58 <__vector_9+0x11c>
		{
			TIM2_overflow_512us();									
    1f48:	e1 eb       	ldi	r30, 0xB1	; 177
    1f4a:	f0 e0       	ldi	r31, 0x00	; 0
    1f4c:	80 81       	ld	r24, Z
    1f4e:	8b 7f       	andi	r24, 0xFB	; 251
    1f50:	80 83       	st	Z, r24
    1f52:	80 81       	ld	r24, Z
    1f54:	83 60       	ori	r24, 0x03	; 3
    1f56:	80 83       	st	Z, r24
		}
		timer_count=0;		
    1f58:	10 92 09 02 	sts	0x0209, r1	; 0x800209 <__data_end+0x1>
    1f5c:	10 92 08 02 	sts	0x0208, r1	; 0x800208 <__data_end>
	}
}
    1f60:	ff 91       	pop	r31
    1f62:	ef 91       	pop	r30
    1f64:	df 91       	pop	r29
    1f66:	cf 91       	pop	r28
    1f68:	bf 91       	pop	r27
    1f6a:	af 91       	pop	r26
    1f6c:	9f 91       	pop	r25
    1f6e:	8f 91       	pop	r24
    1f70:	7f 91       	pop	r23
    1f72:	6f 91       	pop	r22
    1f74:	5f 91       	pop	r21
    1f76:	4f 91       	pop	r20
    1f78:	3f 91       	pop	r19
    1f7a:	2f 91       	pop	r18
    1f7c:	0f 90       	pop	r0
    1f7e:	0f be       	out	0x3f, r0	; 63
    1f80:	0f 90       	pop	r0
    1f82:	1f 90       	pop	r1
    1f84:	18 95       	reti

00001f86 <__vector_18>:
    /* store buffer index */
    UART_RxTail = tmptail;

    UART_LastRxError = 0;
    return (lastRxError << 8) + data;
}/* uart_getc */
    1f86:	1f 92       	push	r1
    1f88:	0f 92       	push	r0
    1f8a:	0f b6       	in	r0, 0x3f	; 63
    1f8c:	0f 92       	push	r0
    1f8e:	11 24       	eor	r1, r1
    1f90:	2f 93       	push	r18
    1f92:	8f 93       	push	r24
    1f94:	9f 93       	push	r25
    1f96:	ef 93       	push	r30
    1f98:	ff 93       	push	r31
    1f9a:	80 91 c0 00 	lds	r24, 0x00C0	; 0x8000c0 <__DATA_REGION_ORIGIN__+0x60>
    1f9e:	20 91 c6 00 	lds	r18, 0x00C6	; 0x8000c6 <__DATA_REGION_ORIGIN__+0x66>
    1fa2:	8c 71       	andi	r24, 0x1C	; 28
    1fa4:	e0 91 15 02 	lds	r30, 0x0215	; 0x800215 <UART_RxHead>
    1fa8:	ef 5f       	subi	r30, 0xFF	; 255
    1faa:	ef 71       	andi	r30, 0x1F	; 31
    1fac:	90 91 14 02 	lds	r25, 0x0214	; 0x800214 <UART_RxTail>
    1fb0:	e9 17       	cp	r30, r25
    1fb2:	39 f0       	breq	.+14     	; 0x1fc2 <__vector_18+0x3c>
    1fb4:	e0 93 15 02 	sts	0x0215, r30	; 0x800215 <UART_RxHead>
    1fb8:	f0 e0       	ldi	r31, 0x00	; 0
    1fba:	e8 5e       	subi	r30, 0xE8	; 232
    1fbc:	fd 4f       	sbci	r31, 0xFD	; 253
    1fbe:	20 83       	st	Z, r18
    1fc0:	01 c0       	rjmp	.+2      	; 0x1fc4 <__vector_18+0x3e>
    1fc2:	82 e0       	ldi	r24, 0x02	; 2
    1fc4:	90 91 13 02 	lds	r25, 0x0213	; 0x800213 <UART_LastRxError>
    1fc8:	89 2b       	or	r24, r25
    1fca:	80 93 13 02 	sts	0x0213, r24	; 0x800213 <UART_LastRxError>
    1fce:	ff 91       	pop	r31
    1fd0:	ef 91       	pop	r30
    1fd2:	9f 91       	pop	r25
    1fd4:	8f 91       	pop	r24
    1fd6:	2f 91       	pop	r18
    1fd8:	0f 90       	pop	r0
    1fda:	0f be       	out	0x3f, r0	; 63
    1fdc:	0f 90       	pop	r0
    1fde:	1f 90       	pop	r1
    1fe0:	18 95       	reti

00001fe2 <__vector_19>:
    1fe2:	1f 92       	push	r1
    1fe4:	0f 92       	push	r0
    1fe6:	0f b6       	in	r0, 0x3f	; 63
    1fe8:	0f 92       	push	r0
    1fea:	11 24       	eor	r1, r1
    1fec:	8f 93       	push	r24
    1fee:	9f 93       	push	r25
    1ff0:	ef 93       	push	r30
    1ff2:	ff 93       	push	r31
    1ff4:	90 91 17 02 	lds	r25, 0x0217	; 0x800217 <UART_TxHead>
    1ff8:	80 91 16 02 	lds	r24, 0x0216	; 0x800216 <UART_TxTail>
    1ffc:	98 17       	cp	r25, r24
    1ffe:	69 f0       	breq	.+26     	; 0x201a <__vector_19+0x38>
    2000:	e0 91 16 02 	lds	r30, 0x0216	; 0x800216 <UART_TxTail>
    2004:	ef 5f       	subi	r30, 0xFF	; 255
    2006:	ef 71       	andi	r30, 0x1F	; 31
    2008:	e0 93 16 02 	sts	0x0216, r30	; 0x800216 <UART_TxTail>
    200c:	f0 e0       	ldi	r31, 0x00	; 0
    200e:	e8 5c       	subi	r30, 0xC8	; 200
    2010:	fd 4f       	sbci	r31, 0xFD	; 253
    2012:	80 81       	ld	r24, Z
    2014:	80 93 c6 00 	sts	0x00C6, r24	; 0x8000c6 <__DATA_REGION_ORIGIN__+0x66>
    2018:	05 c0       	rjmp	.+10     	; 0x2024 <__vector_19+0x42>
    201a:	e1 ec       	ldi	r30, 0xC1	; 193
    201c:	f0 e0       	ldi	r31, 0x00	; 0
    201e:	80 81       	ld	r24, Z
    2020:	8f 7d       	andi	r24, 0xDF	; 223
    2022:	80 83       	st	Z, r24
    2024:	ff 91       	pop	r31
    2026:	ef 91       	pop	r30
    2028:	9f 91       	pop	r25
    202a:	8f 91       	pop	r24
    202c:	0f 90       	pop	r0
    202e:	0f be       	out	0x3f, r0	; 63
    2030:	0f 90       	pop	r0
    2032:	1f 90       	pop	r1
    2034:	18 95       	reti

00002036 <uart_init>:
    2036:	10 92 17 02 	sts	0x0217, r1	; 0x800217 <UART_TxHead>
    203a:	10 92 16 02 	sts	0x0216, r1	; 0x800216 <UART_TxTail>
    203e:	10 92 15 02 	sts	0x0215, r1	; 0x800215 <UART_RxHead>
    2042:	10 92 14 02 	sts	0x0214, r1	; 0x800214 <UART_RxTail>
    2046:	99 23       	and	r25, r25
    2048:	1c f4       	brge	.+6      	; 0x2050 <uart_init+0x1a>
    204a:	22 e0       	ldi	r18, 0x02	; 2
    204c:	20 93 c0 00 	sts	0x00C0, r18	; 0x8000c0 <__DATA_REGION_ORIGIN__+0x60>
    2050:	90 78       	andi	r25, 0x80	; 128
    2052:	90 93 c5 00 	sts	0x00C5, r25	; 0x8000c5 <__DATA_REGION_ORIGIN__+0x65>
    2056:	80 93 c4 00 	sts	0x00C4, r24	; 0x8000c4 <__DATA_REGION_ORIGIN__+0x64>
    205a:	88 e9       	ldi	r24, 0x98	; 152
    205c:	80 93 c1 00 	sts	0x00C1, r24	; 0x8000c1 <__DATA_REGION_ORIGIN__+0x61>
    2060:	86 e0       	ldi	r24, 0x06	; 6
    2062:	80 93 c2 00 	sts	0x00C2, r24	; 0x8000c2 <__DATA_REGION_ORIGIN__+0x62>
    2066:	08 95       	ret

00002068 <uart_putc>:
void uart_putc(unsigned char data)
{
    unsigned char tmphead;


    tmphead = (UART_TxHead + 1) & UART_TX_BUFFER_MASK;
    2068:	20 91 17 02 	lds	r18, 0x0217	; 0x800217 <UART_TxHead>
    206c:	2f 5f       	subi	r18, 0xFF	; 255
    206e:	2f 71       	andi	r18, 0x1F	; 31

    while (tmphead == UART_TxTail)
    2070:	90 91 16 02 	lds	r25, 0x0216	; 0x800216 <UART_TxTail>
    2074:	29 17       	cp	r18, r25
    2076:	e1 f3       	breq	.-8      	; 0x2070 <uart_putc+0x8>
    {
        ;/* wait for free space in buffer */
    }

    UART_TxBuf[tmphead] = data;
    2078:	e2 2f       	mov	r30, r18
    207a:	f0 e0       	ldi	r31, 0x00	; 0
    207c:	e8 5c       	subi	r30, 0xC8	; 200
    207e:	fd 4f       	sbci	r31, 0xFD	; 253
    2080:	80 83       	st	Z, r24
    UART_TxHead         = tmphead;
    2082:	20 93 17 02 	sts	0x0217, r18	; 0x800217 <UART_TxHead>

    /* enable UDRE interrupt */
    UART0_CONTROL |= _BV(UART0_UDRIE);
    2086:	e1 ec       	ldi	r30, 0xC1	; 193
    2088:	f0 e0       	ldi	r31, 0x00	; 0
    208a:	80 81       	ld	r24, Z
    208c:	80 62       	ori	r24, 0x20	; 32
    208e:	80 83       	st	Z, r24
    2090:	08 95       	ret

00002092 <uart_puts>:
 * Purpose:  transmit string to UART
 * Input:    string to be transmitted
 * Returns:  none
 **************************************************************************/
void uart_puts(const char *s)
{
    2092:	cf 93       	push	r28
    2094:	df 93       	push	r29
    2096:	ec 01       	movw	r28, r24
    while (*s)
    2098:	88 81       	ld	r24, Y
    209a:	88 23       	and	r24, r24
    209c:	31 f0       	breq	.+12     	; 0x20aa <uart_puts+0x18>
    209e:	21 96       	adiw	r28, 0x01	; 1
        uart_putc(*s++);
    20a0:	0e 94 34 10 	call	0x2068	; 0x2068 <uart_putc>
 * Input:    string to be transmitted
 * Returns:  none
 **************************************************************************/
void uart_puts(const char *s)
{
    while (*s)
    20a4:	89 91       	ld	r24, Y+
    20a6:	81 11       	cpse	r24, r1
    20a8:	fb cf       	rjmp	.-10     	; 0x20a0 <uart_puts+0xe>
        uart_putc(*s++);
}/* uart_puts */
    20aa:	df 91       	pop	r29
    20ac:	cf 91       	pop	r28
    20ae:	08 95       	ret

000020b0 <__subsf3>:
    20b0:	50 58       	subi	r21, 0x80	; 128

000020b2 <__addsf3>:
    20b2:	bb 27       	eor	r27, r27
    20b4:	aa 27       	eor	r26, r26
    20b6:	0e 94 70 10 	call	0x20e0	; 0x20e0 <__addsf3x>
    20ba:	0c 94 3b 11 	jmp	0x2276	; 0x2276 <__fp_round>
    20be:	0e 94 2d 11 	call	0x225a	; 0x225a <__fp_pscA>
    20c2:	38 f0       	brcs	.+14     	; 0x20d2 <__addsf3+0x20>
    20c4:	0e 94 34 11 	call	0x2268	; 0x2268 <__fp_pscB>
    20c8:	20 f0       	brcs	.+8      	; 0x20d2 <__addsf3+0x20>
    20ca:	39 f4       	brne	.+14     	; 0x20da <__addsf3+0x28>
    20cc:	9f 3f       	cpi	r25, 0xFF	; 255
    20ce:	19 f4       	brne	.+6      	; 0x20d6 <__addsf3+0x24>
    20d0:	26 f4       	brtc	.+8      	; 0x20da <__addsf3+0x28>
    20d2:	0c 94 2a 11 	jmp	0x2254	; 0x2254 <__fp_nan>
    20d6:	0e f4       	brtc	.+2      	; 0x20da <__addsf3+0x28>
    20d8:	e0 95       	com	r30
    20da:	e7 fb       	bst	r30, 7
    20dc:	0c 94 24 11 	jmp	0x2248	; 0x2248 <__fp_inf>

000020e0 <__addsf3x>:
    20e0:	e9 2f       	mov	r30, r25
    20e2:	0e 94 4c 11 	call	0x2298	; 0x2298 <__fp_split3>
    20e6:	58 f3       	brcs	.-42     	; 0x20be <__addsf3+0xc>
    20e8:	ba 17       	cp	r27, r26
    20ea:	62 07       	cpc	r22, r18
    20ec:	73 07       	cpc	r23, r19
    20ee:	84 07       	cpc	r24, r20
    20f0:	95 07       	cpc	r25, r21
    20f2:	20 f0       	brcs	.+8      	; 0x20fc <__addsf3x+0x1c>
    20f4:	79 f4       	brne	.+30     	; 0x2114 <__addsf3x+0x34>
    20f6:	a6 f5       	brtc	.+104    	; 0x2160 <__addsf3x+0x80>
    20f8:	0c 94 6e 11 	jmp	0x22dc	; 0x22dc <__fp_zero>
    20fc:	0e f4       	brtc	.+2      	; 0x2100 <__addsf3x+0x20>
    20fe:	e0 95       	com	r30
    2100:	0b 2e       	mov	r0, r27
    2102:	ba 2f       	mov	r27, r26
    2104:	a0 2d       	mov	r26, r0
    2106:	0b 01       	movw	r0, r22
    2108:	b9 01       	movw	r22, r18
    210a:	90 01       	movw	r18, r0
    210c:	0c 01       	movw	r0, r24
    210e:	ca 01       	movw	r24, r20
    2110:	a0 01       	movw	r20, r0
    2112:	11 24       	eor	r1, r1
    2114:	ff 27       	eor	r31, r31
    2116:	59 1b       	sub	r21, r25
    2118:	99 f0       	breq	.+38     	; 0x2140 <__addsf3x+0x60>
    211a:	59 3f       	cpi	r21, 0xF9	; 249
    211c:	50 f4       	brcc	.+20     	; 0x2132 <__addsf3x+0x52>
    211e:	50 3e       	cpi	r21, 0xE0	; 224
    2120:	68 f1       	brcs	.+90     	; 0x217c <__addsf3x+0x9c>
    2122:	1a 16       	cp	r1, r26
    2124:	f0 40       	sbci	r31, 0x00	; 0
    2126:	a2 2f       	mov	r26, r18
    2128:	23 2f       	mov	r18, r19
    212a:	34 2f       	mov	r19, r20
    212c:	44 27       	eor	r20, r20
    212e:	58 5f       	subi	r21, 0xF8	; 248
    2130:	f3 cf       	rjmp	.-26     	; 0x2118 <__addsf3x+0x38>
    2132:	46 95       	lsr	r20
    2134:	37 95       	ror	r19
    2136:	27 95       	ror	r18
    2138:	a7 95       	ror	r26
    213a:	f0 40       	sbci	r31, 0x00	; 0
    213c:	53 95       	inc	r21
    213e:	c9 f7       	brne	.-14     	; 0x2132 <__addsf3x+0x52>
    2140:	7e f4       	brtc	.+30     	; 0x2160 <__addsf3x+0x80>
    2142:	1f 16       	cp	r1, r31
    2144:	ba 0b       	sbc	r27, r26
    2146:	62 0b       	sbc	r22, r18
    2148:	73 0b       	sbc	r23, r19
    214a:	84 0b       	sbc	r24, r20
    214c:	ba f0       	brmi	.+46     	; 0x217c <__addsf3x+0x9c>
    214e:	91 50       	subi	r25, 0x01	; 1
    2150:	a1 f0       	breq	.+40     	; 0x217a <__addsf3x+0x9a>
    2152:	ff 0f       	add	r31, r31
    2154:	bb 1f       	adc	r27, r27
    2156:	66 1f       	adc	r22, r22
    2158:	77 1f       	adc	r23, r23
    215a:	88 1f       	adc	r24, r24
    215c:	c2 f7       	brpl	.-16     	; 0x214e <__addsf3x+0x6e>
    215e:	0e c0       	rjmp	.+28     	; 0x217c <__addsf3x+0x9c>
    2160:	ba 0f       	add	r27, r26
    2162:	62 1f       	adc	r22, r18
    2164:	73 1f       	adc	r23, r19
    2166:	84 1f       	adc	r24, r20
    2168:	48 f4       	brcc	.+18     	; 0x217c <__addsf3x+0x9c>
    216a:	87 95       	ror	r24
    216c:	77 95       	ror	r23
    216e:	67 95       	ror	r22
    2170:	b7 95       	ror	r27
    2172:	f7 95       	ror	r31
    2174:	9e 3f       	cpi	r25, 0xFE	; 254
    2176:	08 f0       	brcs	.+2      	; 0x217a <__addsf3x+0x9a>
    2178:	b0 cf       	rjmp	.-160    	; 0x20da <__addsf3+0x28>
    217a:	93 95       	inc	r25
    217c:	88 0f       	add	r24, r24
    217e:	08 f0       	brcs	.+2      	; 0x2182 <__addsf3x+0xa2>
    2180:	99 27       	eor	r25, r25
    2182:	ee 0f       	add	r30, r30
    2184:	97 95       	ror	r25
    2186:	87 95       	ror	r24
    2188:	08 95       	ret

0000218a <__cmpsf2>:
    218a:	0e 94 00 11 	call	0x2200	; 0x2200 <__fp_cmp>
    218e:	08 f4       	brcc	.+2      	; 0x2192 <__cmpsf2+0x8>
    2190:	81 e0       	ldi	r24, 0x01	; 1
    2192:	08 95       	ret

00002194 <__fixsfsi>:
    2194:	0e 94 d1 10 	call	0x21a2	; 0x21a2 <__fixunssfsi>
    2198:	68 94       	set
    219a:	b1 11       	cpse	r27, r1
    219c:	0c 94 6f 11 	jmp	0x22de	; 0x22de <__fp_szero>
    21a0:	08 95       	ret

000021a2 <__fixunssfsi>:
    21a2:	0e 94 54 11 	call	0x22a8	; 0x22a8 <__fp_splitA>
    21a6:	88 f0       	brcs	.+34     	; 0x21ca <__fixunssfsi+0x28>
    21a8:	9f 57       	subi	r25, 0x7F	; 127
    21aa:	98 f0       	brcs	.+38     	; 0x21d2 <__fixunssfsi+0x30>
    21ac:	b9 2f       	mov	r27, r25
    21ae:	99 27       	eor	r25, r25
    21b0:	b7 51       	subi	r27, 0x17	; 23
    21b2:	b0 f0       	brcs	.+44     	; 0x21e0 <__fixunssfsi+0x3e>
    21b4:	e1 f0       	breq	.+56     	; 0x21ee <__fixunssfsi+0x4c>
    21b6:	66 0f       	add	r22, r22
    21b8:	77 1f       	adc	r23, r23
    21ba:	88 1f       	adc	r24, r24
    21bc:	99 1f       	adc	r25, r25
    21be:	1a f0       	brmi	.+6      	; 0x21c6 <__fixunssfsi+0x24>
    21c0:	ba 95       	dec	r27
    21c2:	c9 f7       	brne	.-14     	; 0x21b6 <__fixunssfsi+0x14>
    21c4:	14 c0       	rjmp	.+40     	; 0x21ee <__fixunssfsi+0x4c>
    21c6:	b1 30       	cpi	r27, 0x01	; 1
    21c8:	91 f0       	breq	.+36     	; 0x21ee <__fixunssfsi+0x4c>
    21ca:	0e 94 6e 11 	call	0x22dc	; 0x22dc <__fp_zero>
    21ce:	b1 e0       	ldi	r27, 0x01	; 1
    21d0:	08 95       	ret
    21d2:	0c 94 6e 11 	jmp	0x22dc	; 0x22dc <__fp_zero>
    21d6:	67 2f       	mov	r22, r23
    21d8:	78 2f       	mov	r23, r24
    21da:	88 27       	eor	r24, r24
    21dc:	b8 5f       	subi	r27, 0xF8	; 248
    21de:	39 f0       	breq	.+14     	; 0x21ee <__fixunssfsi+0x4c>
    21e0:	b9 3f       	cpi	r27, 0xF9	; 249
    21e2:	cc f3       	brlt	.-14     	; 0x21d6 <__fixunssfsi+0x34>
    21e4:	86 95       	lsr	r24
    21e6:	77 95       	ror	r23
    21e8:	67 95       	ror	r22
    21ea:	b3 95       	inc	r27
    21ec:	d9 f7       	brne	.-10     	; 0x21e4 <__fixunssfsi+0x42>
    21ee:	3e f4       	brtc	.+14     	; 0x21fe <__fixunssfsi+0x5c>
    21f0:	90 95       	com	r25
    21f2:	80 95       	com	r24
    21f4:	70 95       	com	r23
    21f6:	61 95       	neg	r22
    21f8:	7f 4f       	sbci	r23, 0xFF	; 255
    21fa:	8f 4f       	sbci	r24, 0xFF	; 255
    21fc:	9f 4f       	sbci	r25, 0xFF	; 255
    21fe:	08 95       	ret

00002200 <__fp_cmp>:
    2200:	99 0f       	add	r25, r25
    2202:	00 08       	sbc	r0, r0
    2204:	55 0f       	add	r21, r21
    2206:	aa 0b       	sbc	r26, r26
    2208:	e0 e8       	ldi	r30, 0x80	; 128
    220a:	fe ef       	ldi	r31, 0xFE	; 254
    220c:	16 16       	cp	r1, r22
    220e:	17 06       	cpc	r1, r23
    2210:	e8 07       	cpc	r30, r24
    2212:	f9 07       	cpc	r31, r25
    2214:	c0 f0       	brcs	.+48     	; 0x2246 <__fp_cmp+0x46>
    2216:	12 16       	cp	r1, r18
    2218:	13 06       	cpc	r1, r19
    221a:	e4 07       	cpc	r30, r20
    221c:	f5 07       	cpc	r31, r21
    221e:	98 f0       	brcs	.+38     	; 0x2246 <__fp_cmp+0x46>
    2220:	62 1b       	sub	r22, r18
    2222:	73 0b       	sbc	r23, r19
    2224:	84 0b       	sbc	r24, r20
    2226:	95 0b       	sbc	r25, r21
    2228:	39 f4       	brne	.+14     	; 0x2238 <__fp_cmp+0x38>
    222a:	0a 26       	eor	r0, r26
    222c:	61 f0       	breq	.+24     	; 0x2246 <__fp_cmp+0x46>
    222e:	23 2b       	or	r18, r19
    2230:	24 2b       	or	r18, r20
    2232:	25 2b       	or	r18, r21
    2234:	21 f4       	brne	.+8      	; 0x223e <__fp_cmp+0x3e>
    2236:	08 95       	ret
    2238:	0a 26       	eor	r0, r26
    223a:	09 f4       	brne	.+2      	; 0x223e <__fp_cmp+0x3e>
    223c:	a1 40       	sbci	r26, 0x01	; 1
    223e:	a6 95       	lsr	r26
    2240:	8f ef       	ldi	r24, 0xFF	; 255
    2242:	81 1d       	adc	r24, r1
    2244:	81 1d       	adc	r24, r1
    2246:	08 95       	ret

00002248 <__fp_inf>:
    2248:	97 f9       	bld	r25, 7
    224a:	9f 67       	ori	r25, 0x7F	; 127
    224c:	80 e8       	ldi	r24, 0x80	; 128
    224e:	70 e0       	ldi	r23, 0x00	; 0
    2250:	60 e0       	ldi	r22, 0x00	; 0
    2252:	08 95       	ret

00002254 <__fp_nan>:
    2254:	9f ef       	ldi	r25, 0xFF	; 255
    2256:	80 ec       	ldi	r24, 0xC0	; 192
    2258:	08 95       	ret

0000225a <__fp_pscA>:
    225a:	00 24       	eor	r0, r0
    225c:	0a 94       	dec	r0
    225e:	16 16       	cp	r1, r22
    2260:	17 06       	cpc	r1, r23
    2262:	18 06       	cpc	r1, r24
    2264:	09 06       	cpc	r0, r25
    2266:	08 95       	ret

00002268 <__fp_pscB>:
    2268:	00 24       	eor	r0, r0
    226a:	0a 94       	dec	r0
    226c:	12 16       	cp	r1, r18
    226e:	13 06       	cpc	r1, r19
    2270:	14 06       	cpc	r1, r20
    2272:	05 06       	cpc	r0, r21
    2274:	08 95       	ret

00002276 <__fp_round>:
    2276:	09 2e       	mov	r0, r25
    2278:	03 94       	inc	r0
    227a:	00 0c       	add	r0, r0
    227c:	11 f4       	brne	.+4      	; 0x2282 <__fp_round+0xc>
    227e:	88 23       	and	r24, r24
    2280:	52 f0       	brmi	.+20     	; 0x2296 <__fp_round+0x20>
    2282:	bb 0f       	add	r27, r27
    2284:	40 f4       	brcc	.+16     	; 0x2296 <__fp_round+0x20>
    2286:	bf 2b       	or	r27, r31
    2288:	11 f4       	brne	.+4      	; 0x228e <__fp_round+0x18>
    228a:	60 ff       	sbrs	r22, 0
    228c:	04 c0       	rjmp	.+8      	; 0x2296 <__fp_round+0x20>
    228e:	6f 5f       	subi	r22, 0xFF	; 255
    2290:	7f 4f       	sbci	r23, 0xFF	; 255
    2292:	8f 4f       	sbci	r24, 0xFF	; 255
    2294:	9f 4f       	sbci	r25, 0xFF	; 255
    2296:	08 95       	ret

00002298 <__fp_split3>:
    2298:	57 fd       	sbrc	r21, 7
    229a:	90 58       	subi	r25, 0x80	; 128
    229c:	44 0f       	add	r20, r20
    229e:	55 1f       	adc	r21, r21
    22a0:	59 f0       	breq	.+22     	; 0x22b8 <__fp_splitA+0x10>
    22a2:	5f 3f       	cpi	r21, 0xFF	; 255
    22a4:	71 f0       	breq	.+28     	; 0x22c2 <__fp_splitA+0x1a>
    22a6:	47 95       	ror	r20

000022a8 <__fp_splitA>:
    22a8:	88 0f       	add	r24, r24
    22aa:	97 fb       	bst	r25, 7
    22ac:	99 1f       	adc	r25, r25
    22ae:	61 f0       	breq	.+24     	; 0x22c8 <__fp_splitA+0x20>
    22b0:	9f 3f       	cpi	r25, 0xFF	; 255
    22b2:	79 f0       	breq	.+30     	; 0x22d2 <__fp_splitA+0x2a>
    22b4:	87 95       	ror	r24
    22b6:	08 95       	ret
    22b8:	12 16       	cp	r1, r18
    22ba:	13 06       	cpc	r1, r19
    22bc:	14 06       	cpc	r1, r20
    22be:	55 1f       	adc	r21, r21
    22c0:	f2 cf       	rjmp	.-28     	; 0x22a6 <__fp_split3+0xe>
    22c2:	46 95       	lsr	r20
    22c4:	f1 df       	rcall	.-30     	; 0x22a8 <__fp_splitA>
    22c6:	08 c0       	rjmp	.+16     	; 0x22d8 <__fp_splitA+0x30>
    22c8:	16 16       	cp	r1, r22
    22ca:	17 06       	cpc	r1, r23
    22cc:	18 06       	cpc	r1, r24
    22ce:	99 1f       	adc	r25, r25
    22d0:	f1 cf       	rjmp	.-30     	; 0x22b4 <__fp_splitA+0xc>
    22d2:	86 95       	lsr	r24
    22d4:	71 05       	cpc	r23, r1
    22d6:	61 05       	cpc	r22, r1
    22d8:	08 94       	sec
    22da:	08 95       	ret

000022dc <__fp_zero>:
    22dc:	e8 94       	clt

000022de <__fp_szero>:
    22de:	bb 27       	eor	r27, r27
    22e0:	66 27       	eor	r22, r22
    22e2:	77 27       	eor	r23, r23
    22e4:	cb 01       	movw	r24, r22
    22e6:	97 f9       	bld	r25, 7
    22e8:	08 95       	ret

000022ea <__gesf2>:
    22ea:	0e 94 00 11 	call	0x2200	; 0x2200 <__fp_cmp>
    22ee:	08 f4       	brcc	.+2      	; 0x22f2 <__gesf2+0x8>
    22f0:	8f ef       	ldi	r24, 0xFF	; 255
    22f2:	08 95       	ret

000022f4 <__mulsf3>:
    22f4:	0e 94 8d 11 	call	0x231a	; 0x231a <__mulsf3x>
    22f8:	0c 94 3b 11 	jmp	0x2276	; 0x2276 <__fp_round>
    22fc:	0e 94 2d 11 	call	0x225a	; 0x225a <__fp_pscA>
    2300:	38 f0       	brcs	.+14     	; 0x2310 <__mulsf3+0x1c>
    2302:	0e 94 34 11 	call	0x2268	; 0x2268 <__fp_pscB>
    2306:	20 f0       	brcs	.+8      	; 0x2310 <__mulsf3+0x1c>
    2308:	95 23       	and	r25, r21
    230a:	11 f0       	breq	.+4      	; 0x2310 <__mulsf3+0x1c>
    230c:	0c 94 24 11 	jmp	0x2248	; 0x2248 <__fp_inf>
    2310:	0c 94 2a 11 	jmp	0x2254	; 0x2254 <__fp_nan>
    2314:	11 24       	eor	r1, r1
    2316:	0c 94 6f 11 	jmp	0x22de	; 0x22de <__fp_szero>

0000231a <__mulsf3x>:
    231a:	0e 94 4c 11 	call	0x2298	; 0x2298 <__fp_split3>
    231e:	70 f3       	brcs	.-36     	; 0x22fc <__mulsf3+0x8>

00002320 <__mulsf3_pse>:
    2320:	95 9f       	mul	r25, r21
    2322:	c1 f3       	breq	.-16     	; 0x2314 <__mulsf3+0x20>
    2324:	95 0f       	add	r25, r21
    2326:	50 e0       	ldi	r21, 0x00	; 0
    2328:	55 1f       	adc	r21, r21
    232a:	62 9f       	mul	r22, r18
    232c:	f0 01       	movw	r30, r0
    232e:	72 9f       	mul	r23, r18
    2330:	bb 27       	eor	r27, r27
    2332:	f0 0d       	add	r31, r0
    2334:	b1 1d       	adc	r27, r1
    2336:	63 9f       	mul	r22, r19
    2338:	aa 27       	eor	r26, r26
    233a:	f0 0d       	add	r31, r0
    233c:	b1 1d       	adc	r27, r1
    233e:	aa 1f       	adc	r26, r26
    2340:	64 9f       	mul	r22, r20
    2342:	66 27       	eor	r22, r22
    2344:	b0 0d       	add	r27, r0
    2346:	a1 1d       	adc	r26, r1
    2348:	66 1f       	adc	r22, r22
    234a:	82 9f       	mul	r24, r18
    234c:	22 27       	eor	r18, r18
    234e:	b0 0d       	add	r27, r0
    2350:	a1 1d       	adc	r26, r1
    2352:	62 1f       	adc	r22, r18
    2354:	73 9f       	mul	r23, r19
    2356:	b0 0d       	add	r27, r0
    2358:	a1 1d       	adc	r26, r1
    235a:	62 1f       	adc	r22, r18
    235c:	83 9f       	mul	r24, r19
    235e:	a0 0d       	add	r26, r0
    2360:	61 1d       	adc	r22, r1
    2362:	22 1f       	adc	r18, r18
    2364:	74 9f       	mul	r23, r20
    2366:	33 27       	eor	r19, r19
    2368:	a0 0d       	add	r26, r0
    236a:	61 1d       	adc	r22, r1
    236c:	23 1f       	adc	r18, r19
    236e:	84 9f       	mul	r24, r20
    2370:	60 0d       	add	r22, r0
    2372:	21 1d       	adc	r18, r1
    2374:	82 2f       	mov	r24, r18
    2376:	76 2f       	mov	r23, r22
    2378:	6a 2f       	mov	r22, r26
    237a:	11 24       	eor	r1, r1
    237c:	9f 57       	subi	r25, 0x7F	; 127
    237e:	50 40       	sbci	r21, 0x00	; 0
    2380:	9a f0       	brmi	.+38     	; 0x23a8 <__mulsf3_pse+0x88>
    2382:	f1 f0       	breq	.+60     	; 0x23c0 <__mulsf3_pse+0xa0>
    2384:	88 23       	and	r24, r24
    2386:	4a f0       	brmi	.+18     	; 0x239a <__mulsf3_pse+0x7a>
    2388:	ee 0f       	add	r30, r30
    238a:	ff 1f       	adc	r31, r31
    238c:	bb 1f       	adc	r27, r27
    238e:	66 1f       	adc	r22, r22
    2390:	77 1f       	adc	r23, r23
    2392:	88 1f       	adc	r24, r24
    2394:	91 50       	subi	r25, 0x01	; 1
    2396:	50 40       	sbci	r21, 0x00	; 0
    2398:	a9 f7       	brne	.-22     	; 0x2384 <__mulsf3_pse+0x64>
    239a:	9e 3f       	cpi	r25, 0xFE	; 254
    239c:	51 05       	cpc	r21, r1
    239e:	80 f0       	brcs	.+32     	; 0x23c0 <__mulsf3_pse+0xa0>
    23a0:	0c 94 24 11 	jmp	0x2248	; 0x2248 <__fp_inf>
    23a4:	0c 94 6f 11 	jmp	0x22de	; 0x22de <__fp_szero>
    23a8:	5f 3f       	cpi	r21, 0xFF	; 255
    23aa:	e4 f3       	brlt	.-8      	; 0x23a4 <__mulsf3_pse+0x84>
    23ac:	98 3e       	cpi	r25, 0xE8	; 232
    23ae:	d4 f3       	brlt	.-12     	; 0x23a4 <__mulsf3_pse+0x84>
    23b0:	86 95       	lsr	r24
    23b2:	77 95       	ror	r23
    23b4:	67 95       	ror	r22
    23b6:	b7 95       	ror	r27
    23b8:	f7 95       	ror	r31
    23ba:	e7 95       	ror	r30
    23bc:	9f 5f       	subi	r25, 0xFF	; 255
    23be:	c1 f7       	brne	.-16     	; 0x23b0 <__mulsf3_pse+0x90>
    23c0:	fe 2b       	or	r31, r30
    23c2:	88 0f       	add	r24, r24
    23c4:	91 1d       	adc	r25, r1
    23c6:	96 95       	lsr	r25
    23c8:	87 95       	ror	r24
    23ca:	97 f9       	bld	r25, 7
    23cc:	08 95       	ret

000023ce <__itoa_ncheck>:
    23ce:	bb 27       	eor	r27, r27
    23d0:	4a 30       	cpi	r20, 0x0A	; 10
    23d2:	31 f4       	brne	.+12     	; 0x23e0 <__itoa_ncheck+0x12>
    23d4:	99 23       	and	r25, r25
    23d6:	22 f4       	brpl	.+8      	; 0x23e0 <__itoa_ncheck+0x12>
    23d8:	bd e2       	ldi	r27, 0x2D	; 45
    23da:	90 95       	com	r25
    23dc:	81 95       	neg	r24
    23de:	9f 4f       	sbci	r25, 0xFF	; 255
    23e0:	0c 94 f3 11 	jmp	0x23e6	; 0x23e6 <__utoa_common>

000023e4 <__utoa_ncheck>:
    23e4:	bb 27       	eor	r27, r27

000023e6 <__utoa_common>:
    23e6:	fb 01       	movw	r30, r22
    23e8:	55 27       	eor	r21, r21
    23ea:	aa 27       	eor	r26, r26
    23ec:	88 0f       	add	r24, r24
    23ee:	99 1f       	adc	r25, r25
    23f0:	aa 1f       	adc	r26, r26
    23f2:	a4 17       	cp	r26, r20
    23f4:	10 f0       	brcs	.+4      	; 0x23fa <__utoa_common+0x14>
    23f6:	a4 1b       	sub	r26, r20
    23f8:	83 95       	inc	r24
    23fa:	50 51       	subi	r21, 0x10	; 16
    23fc:	b9 f7       	brne	.-18     	; 0x23ec <__utoa_common+0x6>
    23fe:	a0 5d       	subi	r26, 0xD0	; 208
    2400:	aa 33       	cpi	r26, 0x3A	; 58
    2402:	08 f0       	brcs	.+2      	; 0x2406 <__utoa_common+0x20>
    2404:	a9 5d       	subi	r26, 0xD9	; 217
    2406:	a1 93       	st	Z+, r26
    2408:	00 97       	sbiw	r24, 0x00	; 0
    240a:	79 f7       	brne	.-34     	; 0x23ea <__utoa_common+0x4>
    240c:	b1 11       	cpse	r27, r1
    240e:	b1 93       	st	Z+, r27
    2410:	11 92       	st	Z+, r1
    2412:	cb 01       	movw	r24, r22
    2414:	0c 94 0c 12 	jmp	0x2418	; 0x2418 <strrev>

00002418 <strrev>:
    2418:	dc 01       	movw	r26, r24
    241a:	fc 01       	movw	r30, r24
    241c:	67 2f       	mov	r22, r23
    241e:	71 91       	ld	r23, Z+
    2420:	77 23       	and	r23, r23
    2422:	e1 f7       	brne	.-8      	; 0x241c <strrev+0x4>
    2424:	32 97       	sbiw	r30, 0x02	; 2
    2426:	04 c0       	rjmp	.+8      	; 0x2430 <strrev+0x18>
    2428:	7c 91       	ld	r23, X
    242a:	6d 93       	st	X+, r22
    242c:	70 83       	st	Z, r23
    242e:	62 91       	ld	r22, -Z
    2430:	ae 17       	cp	r26, r30
    2432:	bf 07       	cpc	r27, r31
    2434:	c8 f3       	brcs	.-14     	; 0x2428 <strrev+0x10>
    2436:	08 95       	ret

00002438 <_exit>:
    2438:	f8 94       	cli

0000243a <__stop_program>:
    243a:	ff cf       	rjmp	.-2      	; 0x243a <__stop_program>
